---
triple: "arm64-apple-darwin"
binary-path: gen
relocations:
  - {
      offsetInCU: 0xDD82,
      offset: 0xDD82,
      size: 0x8,
      addend: 0x0,
      symName: __ZNSt3__17advanceB7v160006IPNS_12basic_stringIcNS_11char_traitsIcEENS_9allocatorIcEEEEllvEEvRT_T0_,
      symObjAddr: 0x1EF8,
      symBinAddr: 0x100003A70,
      symSize: 0x50,
    }
  - {
      offsetInCU: 0x10C2A,
      offset: 0x10C2A,
      size: 0x8,
      addend: 0x0,
      symName: __ZNSt3__17advanceB7v160006IPNS_14basic_ofstreamIcNS_11char_traitsIcEEEEllvEEvRT_T0_,
      symObjAddr: 0x3EB4,
      symBinAddr: 0x100005A2C,
      symSize: 0x50,
    }
  - {
      offsetInCU: 0x10EAA,
      offset: 0x10EAA,
      size: 0x8,
      addend: 0x0,
      symName: __ZNSt3__17advanceB7v160006INS_16reverse_iteratorIPNS_14basic_ofstreamIcNS_11char_traitsIcEEEEEEllvEEvRT_T0_,
      symObjAddr: 0x4318,
      symBinAddr: 0x100005E90,
      symSize: 0x50,
    }
  - {
      offsetInCU: 0x10F15,
      offset: 0x10F15,
      size: 0x8,
      addend: 0x0,
      symName: __ZNSt3__124__put_character_sequenceB7v160006IcNS_11char_traitsIcEEEERNS_13basic_ostreamIT_T0_EES7_PKS4_m,
      symObjAddr: 0x4FE4,
      symBinAddr: 0x100006B5C,
      symSize: 0x1EC,
    }
  - {
      offsetInCU: 0x11F8C,
      offset: 0x11F8C,
      size: 0x8,
      addend: 0x0,
      symName: __ZNSt3__1lsB7v160006INS_11char_traitsIcEEEERNS_13basic_ostreamIcT_EES6_c,
      symObjAddr: 0x124,
      symBinAddr: 0x100001C9C,
      symSize: 0x34,
    }
  - {
      offsetInCU: 0x11FD2,
      offset: 0x11FD2,
      size: 0x8,
      addend: 0x0,
      symName: __ZNSt3__1lsB7v160006INS_11char_traitsIcEEEERNS_13basic_ostreamIcT_EES6_PKc,
      symObjAddr: 0x158,
      symBinAddr: 0x100001CD0,
      symSize: 0x48,
    }
  - {
      offsetInCU: 0x12018,
      offset: 0x12018,
      size: 0x8,
      addend: 0x0,
      symName: __ZNSt3__119__debug_db_insert_cB7v160006INS_12basic_stringIcNS_11char_traitsIcEENS_9allocatorIcEEEEEEvPT_,
      symObjAddr: 0xB54,
      symBinAddr: 0x1000026CC,
      symSize: 0x10,
    }
  - {
      offsetInCU: 0x12049,
      offset: 0x12049,
      size: 0x8,
      addend: 0x0,
      symName: __ZNSt3__118__constexpr_strlenB7v160006EPKc,
      symObjAddr: 0xC20,
      symBinAddr: 0x100002798,
      symSize: 0x24,
    }
  - {
      offsetInCU: 0x12075,
      offset: 0x12075,
      size: 0x8,
      addend: 0x0,
      symName: __ZNSt3__122__make_exception_guardB7v160006INS_6vectorINS_12basic_stringIcNS_11char_traitsIcEENS_9allocatorIcEEEENS5_IS7_EEE16__destroy_vectorEEENS_28__exception_guard_exceptionsIT_EESC_,
      symObjAddr: 0xDB0,
      symBinAddr: 0x100002928,
      symSize: 0x40,
    }
  - {
      offsetInCU: 0x120AA,
      offset: 0x120AA,
      size: 0x8,
      addend: 0x0,
      symName: __ZNSt3__119__debug_db_insert_cB7v160006INS_6vectorINS_12basic_stringIcNS_11char_traitsIcEENS_9allocatorIcEEEENS5_IS7_EEEEEEvPT_,
      symObjAddr: 0xE24,
      symBinAddr: 0x10000299C,
      symSize: 0x10,
    }
  - {
      offsetInCU: 0x120DB,
      offset: 0x120DB,
      size: 0x8,
      addend: 0x0,
      symName: __ZNSt3__119__allocate_at_leastB7v160006INS_9allocatorINS_12basic_stringIcNS_11char_traitsIcEENS1_IcEEEEEEEENS_19__allocation_resultINS_16allocator_traitsIT_E7pointerEEERSA_m,
      symObjAddr: 0x11D0,
      symBinAddr: 0x100002D48,
      symSize: 0x40,
    }
  - {
      offsetInCU: 0x1211E,
      offset: 0x1211E,
      size: 0x8,
      addend: 0x0,
      symName: __ZNSt3__13minB7v160006ImEERKT_S3_S3_,
      symObjAddr: 0x1328,
      symBinAddr: 0x100002EA0,
      symSize: 0x2C,
    }
  - {
      offsetInCU: 0x1234B,
      offset: 0x1234B,
      size: 0x8,
      addend: 0x0,
      symName: __ZNSt3__13minB7v160006ImNS_6__lessImmEEEERKT_S5_S5_T0_,
      symObjAddr: 0x13B8,
      symBinAddr: 0x100002F30,
      symSize: 0x54,
    }
  - {
      offsetInCU: 0x125CC,
      offset: 0x125CC,
      size: 0x8,
      addend: 0x0,
      symName: __ZNSt3__120__throw_length_errorB7v160006EPKc,
      symObjAddr: 0x149C,
      symBinAddr: 0x100003014,
      symSize: 0x64,
    }
  - {
      offsetInCU: 0x125F4,
      offset: 0x125F4,
      size: 0x8,
      addend: 0x0,
      symName: __ZNSt3__117__libcpp_allocateB7v160006Emm,
      symObjAddr: 0x1610,
      symBinAddr: 0x100003188,
      symSize: 0x60,
    }
  - {
      offsetInCU: 0x1264E,
      offset: 0x1264E,
      size: 0x8,
      addend: 0x0,
      symName: __ZNSt3__124__is_overaligned_for_newB7v160006Em,
      symObjAddr: 0x1670,
      symBinAddr: 0x1000031E8,
      symSize: 0x20,
    }
  - {
      offsetInCU: 0x1267C,
      offset: 0x1267C,
      size: 0x8,
      addend: 0x0,
      symName: __ZNSt3__121__libcpp_operator_newB7v160006IJmSt11align_val_tEEEPvDpT_,
      symObjAddr: 0x1690,
      symBinAddr: 0x100003208,
      symSize: 0x2C,
    }
  - {
      offsetInCU: 0x126C9,
      offset: 0x126C9,
      size: 0x8,
      addend: 0x0,
      symName: __ZNSt3__121__libcpp_operator_newB7v160006IJmEEEPvDpT_,
      symObjAddr: 0x16BC,
      symBinAddr: 0x100003234,
      symSize: 0x24,
    }
  - {
      offsetInCU: 0x12702,
      offset: 0x12702,
      size: 0x8,
      addend: 0x0,
      symName: __ZNSt3__112__to_addressB7v160006INS_12basic_stringIcNS_11char_traitsIcEENS_9allocatorIcEEEEEEPT_S8_,
      symObjAddr: 0x17D8,
      symBinAddr: 0x100003350,
      symSize: 0x14,
    }
  - {
      offsetInCU: 0x12737,
      offset: 0x12737,
      size: 0x8,
      addend: 0x0,
      symName: __ZNSt3__130__uninitialized_allocator_copyB7v160006INS_9allocatorINS_12basic_stringIcNS_11char_traitsIcEENS1_IcEEEEEEPKS6_S9_PS6_EET2_RT_T0_T1_SB_,
      symObjAddr: 0x1888,
      symBinAddr: 0x100003400,
      symSize: 0xF4,
    }
  - {
      offsetInCU: 0x127D5,
      offset: 0x127D5,
      size: 0x8,
      addend: 0x0,
      symName: __ZNSt3__122__make_exception_guardB7v160006INS_29_AllocatorDestroyRangeReverseINS_9allocatorINS_12basic_stringIcNS_11char_traitsIcEENS2_IcEEEEEEPS7_EEEENS_28__exception_guard_exceptionsIT_EESC_,
      symObjAddr: 0x19F4,
      symBinAddr: 0x10000356C,
      symSize: 0x4C,
    }
  - {
      offsetInCU: 0x12830,
      offset: 0x12830,
      size: 0x8,
      addend: 0x0,
      symName: __ZNSt3__112construct_atB7v160006INS_12basic_stringIcNS_11char_traitsIcEENS_9allocatorIcEEEEJRKS6_EPS6_EEPT_SB_DpOT0_,
      symObjAddr: 0x1B98,
      symBinAddr: 0x100003710,
      symSize: 0x3C,
    }
  - {
      offsetInCU: 0x128A0,
      offset: 0x128A0,
      size: 0x8,
      addend: 0x0,
      symName: __ZNSt3__119__allocator_destroyB7v160006INS_9allocatorINS_12basic_stringIcNS_11char_traitsIcEENS1_IcEEEEEENS_16reverse_iteratorIPS6_EESA_EEvRT_T0_T1_,
      symObjAddr: 0x1C8C,
      symBinAddr: 0x100003804,
      symSize: 0x70,
    }
  - {
      offsetInCU: 0x12903,
      offset: 0x12903,
      size: 0x8,
      addend: 0x0,
      symName: __ZNSt3__1neB7v160006IPNS_12basic_stringIcNS_11char_traitsIcEENS_9allocatorIcEEEES7_EEbRKNS_16reverse_iteratorIT_EERKNS8_IT0_EE,
      symObjAddr: 0x1D30,
      symBinAddr: 0x1000038A8,
      symSize: 0x48,
    }
  - {
      offsetInCU: 0x1294F,
      offset: 0x1294F,
      size: 0x8,
      addend: 0x0,
      symName: __ZNSt3__112__to_addressB7v160006INS_16reverse_iteratorIPNS_12basic_stringIcNS_11char_traitsIcEENS_9allocatorIcEEEEEEvEENS_5decayIDTclsr19__to_address_helperIT_EE6__callclsr3stdE7declvalIRKSB_EEEEE4typeESD_,
      symObjAddr: 0x1DA0,
      symBinAddr: 0x100003918,
      symSize: 0x24,
    }
  - {
      offsetInCU: 0x12985,
      offset: 0x12985,
      size: 0x8,
      addend: 0x0,
      symName: __ZNSt3__110destroy_atB7v160006INS_12basic_stringIcNS_11char_traitsIcEENS_9allocatorIcEEEELi0EEEvPT_,
      symObjAddr: 0x1DFC,
      symBinAddr: 0x100003974,
      symSize: 0x24,
    }
  - {
      offsetInCU: 0x129BC,
      offset: 0x129BC,
      size: 0x8,
      addend: 0x0,
      symName: __ZNSt3__112__destroy_atB7v160006INS_12basic_stringIcNS_11char_traitsIcEENS_9allocatorIcEEEELi0EEEvPT_,
      symObjAddr: 0x1E20,
      symBinAddr: 0x100003998,
      symSize: 0x24,
    }
  - {
      offsetInCU: 0x12A1C,
      offset: 0x12A1C,
      size: 0x8,
      addend: 0x0,
      symName: __ZNSt3__14prevB7v160006IPNS_12basic_stringIcNS_11char_traitsIcEENS_9allocatorIcEEEEEENS_9enable_ifIXsr25__is_cpp17_input_iteratorIT_EE5valueES9_E4typeES9_NS_15iterator_traitsIS9_E15difference_typeE,
      symObjAddr: 0x1EA8,
      symBinAddr: 0x100003A20,
      symSize: 0x50,
    }
  - {
      offsetInCU: 0x12A5F,
      offset: 0x12A5F,
      size: 0x8,
      addend: 0x0,
      symName: __ZNSt3__121__convert_to_integralB7v160006El,
      symObjAddr: 0x1F48,
      symBinAddr: 0x100003AC0,
      symSize: 0x14,
    }
  - {
      offsetInCU: 0x12A8B,
      offset: 0x12A8B,
      size: 0x8,
      addend: 0x0,
      symName: __ZNSt3__19__advanceB7v160006IPNS_12basic_stringIcNS_11char_traitsIcEENS_9allocatorIcEEEEEEvRT_NS_15iterator_traitsIS8_E15difference_typeENS_26random_access_iterator_tagE,
      symObjAddr: 0x1F5C,
      symBinAddr: 0x100003AD4,
      symSize: 0x30,
    }
  - {
      offsetInCU: 0x12AD4,
      offset: 0x12AD4,
      size: 0x8,
      addend: 0x0,
      symName: __ZNSt3__118__debug_db_erase_cB7v160006INS_6vectorINS_12basic_stringIcNS_11char_traitsIcEENS_9allocatorIcEEEENS5_IS7_EEEEEEvPT_,
      symObjAddr: 0x2194,
      symBinAddr: 0x100003D0C,
      symSize: 0x10,
    }
  - {
      offsetInCU: 0x12B05,
      offset: 0x12B05,
      size: 0x8,
      addend: 0x0,
      symName: __ZNSt3__119__libcpp_deallocateB7v160006EPvmm,
      symObjAddr: 0x22F8,
      symBinAddr: 0x100003E70,
      symSize: 0x60,
    }
  - {
      offsetInCU: 0x12B6A,
      offset: 0x12B6A,
      size: 0x8,
      addend: 0x0,
      symName: __ZNSt3__127__do_deallocate_handle_sizeB7v160006IJSt11align_val_tEEEvPvmDpT_,
      symObjAddr: 0x2358,
      symBinAddr: 0x100003ED0,
      symSize: 0x30,
    }
  - {
      offsetInCU: 0x12BBD,
      offset: 0x12BBD,
      size: 0x8,
      addend: 0x0,
      symName: __ZNSt3__127__do_deallocate_handle_sizeB7v160006IJEEEvPvmDpT_,
      symObjAddr: 0x2388,
      symBinAddr: 0x100003F00,
      symSize: 0x28,
    }
  - {
      offsetInCU: 0x12BFB,
      offset: 0x12BFB,
      size: 0x8,
      addend: 0x0,
      symName: __ZNSt3__124__libcpp_operator_deleteB7v160006IJPvSt11align_val_tEEEvDpT_,
      symObjAddr: 0x23B0,
      symBinAddr: 0x100003F28,
      symSize: 0x2C,
    }
  - {
      offsetInCU: 0x12C44,
      offset: 0x12C44,
      size: 0x8,
      addend: 0x0,
      symName: __ZNSt3__124__libcpp_operator_deleteB7v160006IJPvEEEvDpT_,
      symObjAddr: 0x23DC,
      symBinAddr: 0x100003F54,
      symSize: 0x24,
    }
  - {
      offsetInCU: 0x133D2,
      offset: 0x133D2,
      size: 0x8,
      addend: 0x0,
      symName: __ZNSt3__119__debug_db_insert_cB7v160006INS_6vectorINS_14basic_ofstreamIcNS_11char_traitsIcEEEENS_9allocatorIS5_EEEEEEvPT_,
      symObjAddr: 0x2DE8,
      symBinAddr: 0x100004960,
      symSize: 0x10,
    }
  - {
      offsetInCU: 0x13403,
      offset: 0x13403,
      size: 0x8,
      addend: 0x0,
      symName: __ZNSt3__119__allocate_at_leastB7v160006INS_9allocatorINS_14basic_ofstreamIcNS_11char_traitsIcEEEEEEEENS_19__allocation_resultINS_16allocator_traitsIT_E7pointerEEERS9_m,
      symObjAddr: 0x3390,
      symBinAddr: 0x100004F08,
      symSize: 0x40,
    }
  - {
      offsetInCU: 0x13446,
      offset: 0x13446,
      size: 0x8,
      addend: 0x0,
      symName: __ZNSt3__142__uninitialized_allocator_move_if_noexceptB7v160006INS_9allocatorINS_14basic_ofstreamIcNS_11char_traitsIcEEEEEENS_16reverse_iteratorIPS5_EES9_S9_EET2_RT_T0_T1_SA_,
      symObjAddr: 0x3630,
      symBinAddr: 0x1000051A8,
      symSize: 0x12C,
    }
  - {
      offsetInCU: 0x134E6,
      offset: 0x134E6,
      size: 0x8,
      addend: 0x0,
      symName: __ZNSt3__14swapB7v160006IPNS_14basic_ofstreamIcNS_11char_traitsIcEEEEEENS_9enable_ifIXaasr21is_move_constructibleIT_EE5valuesr18is_move_assignableIS7_EE5valueEvE4typeERS7_SA_,
      symObjAddr: 0x37A8,
      symBinAddr: 0x100005320,
      symSize: 0x3C,
    }
  - {
      offsetInCU: 0x13537,
      offset: 0x13537,
      size: 0x8,
      addend: 0x0,
      symName: __ZNSt3__125__debug_db_invalidate_allB7v160006INS_6vectorINS_14basic_ofstreamIcNS_11char_traitsIcEEEENS_9allocatorIS5_EEEEEEvPT_,
      symObjAddr: 0x38D4,
      symBinAddr: 0x10000544C,
      symSize: 0x10,
    }
  - {
      offsetInCU: 0x13568,
      offset: 0x13568,
      size: 0x8,
      addend: 0x0,
      symName: __ZNSt3__112__to_addressB7v160006INS_14basic_ofstreamIcNS_11char_traitsIcEEEEEEPT_S6_,
      symObjAddr: 0x392C,
      symBinAddr: 0x1000054A4,
      symSize: 0x14,
    }
  - {
      offsetInCU: 0x1359D,
      offset: 0x1359D,
      size: 0x8,
      addend: 0x0,
      symName: __ZNSt3__122__make_exception_guardB7v160006INS_29_AllocatorDestroyRangeReverseINS_9allocatorINS_14basic_ofstreamIcNS_11char_traitsIcEEEEEENS_16reverse_iteratorIPS6_EEEEEENS_28__exception_guard_exceptionsIT_EESD_,
      symObjAddr: 0x3940,
      symBinAddr: 0x1000054B8,
      symSize: 0x4C,
    }
  - {
      offsetInCU: 0x135D3,
      offset: 0x135D3,
      size: 0x8,
      addend: 0x0,
      symName: __ZNSt3__1neB7v160006IPNS_14basic_ofstreamIcNS_11char_traitsIcEEEES5_EEbRKNS_16reverse_iteratorIT_EERKNS6_IT0_EE,
      symObjAddr: 0x39D0,
      symBinAddr: 0x100005548,
      symSize: 0x48,
    }
  - {
      offsetInCU: 0x1361F,
      offset: 0x1361F,
      size: 0x8,
      addend: 0x0,
      symName: __ZNSt3__112__to_addressB7v160006INS_16reverse_iteratorIPNS_14basic_ofstreamIcNS_11char_traitsIcEEEEEEvEENS_5decayIDTclsr19__to_address_helperIT_EE6__callclsr3stdE7declvalIRKS9_EEEEE4typeESB_,
      symObjAddr: 0x3A48,
      symBinAddr: 0x1000055C0,
      symSize: 0x24,
    }
  - {
      offsetInCU: 0x1367A,
      offset: 0x1367A,
      size: 0x8,
      addend: 0x0,
      symName: __ZNSt3__112construct_atB7v160006INS_14basic_ofstreamIcNS_11char_traitsIcEEEEJS4_EPS4_EEPT_S7_DpOT0_,
      symObjAddr: 0x3B98,
      symBinAddr: 0x100005710,
      symSize: 0x3C,
    }
  - {
      offsetInCU: 0x13713,
      offset: 0x13713,
      size: 0x8,
      addend: 0x0,
      symName: __ZNSt3__14prevB7v160006IPNS_14basic_ofstreamIcNS_11char_traitsIcEEEEEENS_9enable_ifIXsr25__is_cpp17_input_iteratorIT_EE5valueES7_E4typeES7_NS_15iterator_traitsIS7_E15difference_typeE,
      symObjAddr: 0x3E64,
      symBinAddr: 0x1000059DC,
      symSize: 0x50,
    }
  - {
      offsetInCU: 0x13756,
      offset: 0x13756,
      size: 0x8,
      addend: 0x0,
      symName: __ZNSt3__19__advanceB7v160006IPNS_14basic_ofstreamIcNS_11char_traitsIcEEEEEEvRT_NS_15iterator_traitsIS6_E15difference_typeENS_26random_access_iterator_tagE,
      symObjAddr: 0x3F04,
      symBinAddr: 0x100005A7C,
      symSize: 0x30,
    }
  - {
      offsetInCU: 0x1379F,
      offset: 0x1379F,
      size: 0x8,
      addend: 0x0,
      symName: __ZNSt3__119__allocator_destroyB7v160006INS_9allocatorINS_14basic_ofstreamIcNS_11char_traitsIcEEEEEENS_16reverse_iteratorINS7_IPS5_EEEESA_EEvRT_T0_T1_,
      symObjAddr: 0x4038,
      symBinAddr: 0x100005BB0,
      symSize: 0x70,
    }
  - {
      offsetInCU: 0x13804,
      offset: 0x13804,
      size: 0x8,
      addend: 0x0,
      symName: __ZNSt3__1neB7v160006INS_16reverse_iteratorIPNS_14basic_ofstreamIcNS_11char_traitsIcEEEEEES7_EEbRKNS1_IT_EERKNS1_IT0_EE,
      symObjAddr: 0x40E4,
      symBinAddr: 0x100005C5C,
      symSize: 0x60,
    }
  - {
      offsetInCU: 0x13850,
      offset: 0x13850,
      size: 0x8,
      addend: 0x0,
      symName: __ZNSt3__112__to_addressB7v160006INS_16reverse_iteratorINS1_IPNS_14basic_ofstreamIcNS_11char_traitsIcEEEEEEEEvEENS_5decayIDTclsr19__to_address_helperIT_EE6__callclsr3stdE7declvalIRKSA_EEEEE4typeESC_,
      symObjAddr: 0x416C,
      symBinAddr: 0x100005CE4,
      symSize: 0x24,
    }
  - {
      offsetInCU: 0x13886,
      offset: 0x13886,
      size: 0x8,
      addend: 0x0,
      symName: __ZNSt3__110destroy_atB7v160006INS_14basic_ofstreamIcNS_11char_traitsIcEEEELi0EEEvPT_,
      symObjAddr: 0x41E4,
      symBinAddr: 0x100005D5C,
      symSize: 0x24,
    }
  - {
      offsetInCU: 0x138BD,
      offset: 0x138BD,
      size: 0x8,
      addend: 0x0,
      symName: __ZNSt3__112__destroy_atB7v160006INS_14basic_ofstreamIcNS_11char_traitsIcEEEELi0EEEvPT_,
      symObjAddr: 0x4208,
      symBinAddr: 0x100005D80,
      symSize: 0x2C,
    }
  - {
      offsetInCU: 0x1391D,
      offset: 0x1391D,
      size: 0x8,
      addend: 0x0,
      symName: __ZNSt3__14prevB7v160006INS_16reverse_iteratorIPNS_14basic_ofstreamIcNS_11char_traitsIcEEEEEEEENS_9enable_ifIXsr25__is_cpp17_input_iteratorIT_EE5valueES9_E4typeES9_NS_15iterator_traitsIS9_E15difference_typeE,
      symObjAddr: 0x42B8,
      symBinAddr: 0x100005E30,
      symSize: 0x60,
    }
  - {
      offsetInCU: 0x13960,
      offset: 0x13960,
      size: 0x8,
      addend: 0x0,
      symName: __ZNSt3__19__advanceB7v160006INS_16reverse_iteratorIPNS_14basic_ofstreamIcNS_11char_traitsIcEEEEEEEEvRT_NS_15iterator_traitsIS8_E15difference_typeENS_26random_access_iterator_tagE,
      symObjAddr: 0x4368,
      symBinAddr: 0x100005EE0,
      symSize: 0x2C,
    }
  - {
      offsetInCU: 0x139A9,
      offset: 0x139A9,
      size: 0x8,
      addend: 0x0,
      symName: __ZNSt3__13maxB7v160006ImEERKT_S3_S3_,
      symObjAddr: 0x49B0,
      symBinAddr: 0x100006528,
      symSize: 0x2C,
    }
  - {
      offsetInCU: 0x139EC,
      offset: 0x139EC,
      size: 0x8,
      addend: 0x0,
      symName: __ZNSt3__13maxB7v160006ImNS_6__lessImmEEEERKT_S5_S5_T0_,
      symObjAddr: 0x49DC,
      symBinAddr: 0x100006554,
      symSize: 0x54,
    }
  - {
      offsetInCU: 0x13A46,
      offset: 0x13A46,
      size: 0x8,
      addend: 0x0,
      symName: __ZNSt3__112__to_addressB7v160006IKcEEPT_S3_,
      symObjAddr: 0x4B20,
      symBinAddr: 0x100006698,
      symSize: 0x14,
    }
  - {
      offsetInCU: 0x13AAE,
      offset: 0x13AAE,
      size: 0x8,
      addend: 0x0,
      symName: __ZNSt3__118__debug_db_erase_cB7v160006INS_6vectorINS_14basic_ofstreamIcNS_11char_traitsIcEEEENS_9allocatorIS5_EEEEEEvPT_,
      symObjAddr: 0x4E1C,
      symBinAddr: 0x100006994,
      symSize: 0x10,
    }
  - {
      offsetInCU: 0x13ADF,
      offset: 0x13ADF,
      size: 0x8,
      addend: 0x0,
      symName: __ZNSt3__116__pad_and_outputB7v160006IcNS_11char_traitsIcEEEENS_19ostreambuf_iteratorIT_T0_EES6_PKS4_S8_S8_RNS_8ios_baseES4_,
      symObjAddr: 0x51EC,
      symBinAddr: 0x100006D64,
      symSize: 0x240,
    }
  - {
      offsetInCU: 0x13BAE,
      offset: 0x13BAE,
      size: 0x8,
      addend: 0x0,
      symName: __ZNSt3__112__to_addressB7v160006IcEEPT_S2_,
      symObjAddr: 0x5638,
      symBinAddr: 0x1000071B0,
      symSize: 0x14,
    }
  - {
      offsetInCU: 0x13BE3,
      offset: 0x13BE3,
      size: 0x8,
      addend: 0x0,
      symName: __ZNSt3__19use_facetB7v160006INS_5ctypeIcEEEERKT_RKNS_6localeE,
      symObjAddr: 0x5878,
      symBinAddr: 0x1000073F0,
      symSize: 0x2C,
    }
  - {
      offsetInCU: 0x1469E,
      offset: 0x1469E,
      size: 0x8,
      addend: 0x0,
      symName: __ZSt28__throw_bad_array_new_lengthB7v160006v,
      symObjAddr: 0x15DC,
      symBinAddr: 0x100003154,
      symSize: 0x34,
    }
  - {
      offsetInCU: 0x155F7,
      offset: 0x155F7,
      size: 0x8,
      addend: 0x0,
      symName: __ZNSt3__16vectorINS_14basic_ofstreamIcNS_11char_traitsIcEEEENS_9allocatorIS4_EEE26__swap_out_circular_bufferERNS_14__split_bufferIS4_RS6_EE,
      symObjAddr: 0x3010,
      symBinAddr: 0x100004B88,
      symSize: 0x118,
    }
  - {
      offsetInCU: 0x1765A,
      offset: 0x1765A,
      size: 0x8,
      addend: 0x0,
      symName: _main,
      symObjAddr: 0x0,
      symBinAddr: 0x100001B78,
      symSize: 0xF8,
    }
  - {
      offsetInCU: 0x17691,
      offset: 0x17691,
      size: 0x8,
      addend: 0x0,
      symName: __ZNSt3__19basic_iosIcNS_11char_traitsIcEEE3tieB7v160006EPNS_13basic_ostreamIcS2_EE,
      symObjAddr: 0xF8,
      symBinAddr: 0x100001C70,
      symSize: 0x2C,
    }
  - {
      offsetInCU: 0x177A4,
      offset: 0x177A4,
      size: 0x8,
      addend: 0x0,
      symName: __ZN9GeneratorC1Ev,
      symObjAddr: 0x1A0,
      symBinAddr: 0x100001D18,
      symSize: 0x2C,
    }
  - {
      offsetInCU: 0x177D0,
      offset: 0x177D0,
      size: 0x8,
      addend: 0x0,
      symName: __ZN9Generator4makeEi,
      symObjAddr: 0x1CC,
      symBinAddr: 0x100001D44,
      symSize: 0x2B8,
    }
  - {
      offsetInCU: 0x17897,
      offset: 0x17897,
      size: 0x8,
      addend: 0x0,
      symName: __ZN9GeneratorD1Ev,
      symObjAddr: 0x484,
      symBinAddr: 0x100001FFC,
      symSize: 0x2C,
    }
  - {
      offsetInCU: 0x178C3,
      offset: 0x178C3,
      size: 0x8,
      addend: 0x0,
      symName: __ZN9GeneratorC2Ev,
      symObjAddr: 0x4B0,
      symBinAddr: 0x100002028,
      symSize: 0x538,
    }
  - {
      offsetInCU: 0x178F5,
      offset: 0x178F5,
      size: 0x8,
      addend: 0x0,
      symName: __ZNSt3__112basic_stringIcNS_11char_traitsIcEENS_9allocatorIcEEEC1B7v160006IDnEEPKc,
      symObjAddr: 0x9E8,
      symBinAddr: 0x100002560,
      symSize: 0x34,
    }
  - {
      offsetInCU: 0x17933,
      offset: 0x17933,
      size: 0x8,
      addend: 0x0,
      symName: __ZNSt3__16vectorINS_12basic_stringIcNS_11char_traitsIcEENS_9allocatorIcEEEENS4_IS6_EEEC1B7v160006ESt16initializer_listIS6_E,
      symObjAddr: 0xA1C,
      symBinAddr: 0x100002594,
      symSize: 0x3C,
    }
  - {
      offsetInCU: 0x1796E,
      offset: 0x1796E,
      size: 0x8,
      addend: 0x0,
      symName: __ZNSt3__16vectorINS_12basic_stringIcNS_11char_traitsIcEENS_9allocatorIcEEEENS4_IS6_EEED1B7v160006Ev,
      symObjAddr: 0xA58,
      symBinAddr: 0x1000025D0,
      symSize: 0x2C,
    }
  - {
      offsetInCU: 0x17998,
      offset: 0x17998,
      size: 0x8,
      addend: 0x0,
      symName: __ZNSt3__112basic_stringIcNS_11char_traitsIcEENS_9allocatorIcEEEC2B7v160006IDnEEPKc,
      symObjAddr: 0xA84,
      symBinAddr: 0x1000025FC,
      symSize: 0x60,
    }
  - {
      offsetInCU: 0x179DC,
      offset: 0x179DC,
      size: 0x8,
      addend: 0x0,
      symName: __ZNSt3__117__compressed_pairINS_12basic_stringIcNS_11char_traitsIcEENS_9allocatorIcEEE5__repES5_EC1B7v160006INS_18__default_init_tagESA_EEOT_OT0_,
      symObjAddr: 0xAE4,
      symBinAddr: 0x10000265C,
      symSize: 0x3C,
    }
  - {
      offsetInCU: 0x17A34,
      offset: 0x17A34,
      size: 0x8,
      addend: 0x0,
      symName: __ZNSt3__111char_traitsIcE6lengthEPKc,
      symObjAddr: 0xB20,
      symBinAddr: 0x100002698,
      symSize: 0x34,
    }
  - {
      offsetInCU: 0x17A57,
      offset: 0x17A57,
      size: 0x8,
      addend: 0x0,
      symName: __ZNSt3__117__compressed_pairINS_12basic_stringIcNS_11char_traitsIcEENS_9allocatorIcEEE5__repES5_EC2B7v160006INS_18__default_init_tagESA_EEOT_OT0_,
      symObjAddr: 0xB64,
      symBinAddr: 0x1000026DC,
      symSize: 0x3C,
    }
  - {
      offsetInCU: 0x17AAF,
      offset: 0x17AAF,
      size: 0x8,
      addend: 0x0,
      symName: __ZNSt3__122__compressed_pair_elemINS_12basic_stringIcNS_11char_traitsIcEENS_9allocatorIcEEE5__repELi0ELb0EEC2B7v160006ENS_18__default_init_tagE,
      symObjAddr: 0xBA0,
      symBinAddr: 0x100002718,
      symSize: 0x14,
    }
  - {
      offsetInCU: 0x17AE3,
      offset: 0x17AE3,
      size: 0x8,
      addend: 0x0,
      symName: __ZNSt3__122__compressed_pair_elemINS_9allocatorIcEELi1ELb1EEC2B7v160006ENS_18__default_init_tagE,
      symObjAddr: 0xBB4,
      symBinAddr: 0x10000272C,
      symSize: 0x2C,
    }
  - {
      offsetInCU: 0x17B17,
      offset: 0x17B17,
      size: 0x8,
      addend: 0x0,
      symName: __ZNSt3__19allocatorIcEC2B7v160006Ev,
      symObjAddr: 0xBE0,
      symBinAddr: 0x100002758,
      symSize: 0x2C,
    }
  - {
      offsetInCU: 0x17B41,
      offset: 0x17B41,
      size: 0x8,
      addend: 0x0,
      symName: __ZNSt3__116__non_trivial_ifILb1ENS_9allocatorIcEEEC2B7v160006Ev,
      symObjAddr: 0xC0C,
      symBinAddr: 0x100002784,
      symSize: 0x14,
    }
  - {
      offsetInCU: 0x17B6B,
      offset: 0x17B6B,
      size: 0x8,
      addend: 0x0,
      symName: __ZNSt3__16vectorINS_12basic_stringIcNS_11char_traitsIcEENS_9allocatorIcEEEENS4_IS6_EEEC2B7v160006ESt16initializer_listIS6_E,
      symObjAddr: 0xC50,
      symBinAddr: 0x1000027C8,
      symSize: 0x124,
    }
  - {
      offsetInCU: 0x17BC2,
      offset: 0x17BC2,
      size: 0x8,
      addend: 0x0,
      symName: __ZNSt3__117__compressed_pairIPNS_12basic_stringIcNS_11char_traitsIcEENS_9allocatorIcEEEENS4_IS6_EEEC1B7v160006IDnNS_18__default_init_tagEEEOT_OT0_,
      symObjAddr: 0xD74,
      symBinAddr: 0x1000028EC,
      symSize: 0x3C,
    }
  - {
      offsetInCU: 0x17C1A,
      offset: 0x17C1A,
      size: 0x8,
      addend: 0x0,
      symName: __ZNSt3__16vectorINS_12basic_stringIcNS_11char_traitsIcEENS_9allocatorIcEEEENS4_IS6_EEE16__destroy_vectorC1ERS8_,
      symObjAddr: 0xDF0,
      symBinAddr: 0x100002968,
      symSize: 0x34,
    }
  - {
      offsetInCU: 0x17C53,
      offset: 0x17C53,
      size: 0x8,
      addend: 0x0,
      symName: __ZNKSt16initializer_listINSt3__112basic_stringIcNS0_11char_traitsIcEENS0_9allocatorIcEEEEE4sizeB7v160006Ev,
      symObjAddr: 0xE34,
      symBinAddr: 0x1000029AC,
      symSize: 0x18,
    }
  - {
      offsetInCU: 0x17C79,
      offset: 0x17C79,
      size: 0x8,
      addend: 0x0,
      symName: __ZNSt3__16vectorINS_12basic_stringIcNS_11char_traitsIcEENS_9allocatorIcEEEENS4_IS6_EEE11__vallocateB7v160006Em,
      symObjAddr: 0xE4C,
      symBinAddr: 0x1000029C4,
      symSize: 0xB4,
    }
  - {
      offsetInCU: 0x17CBD,
      offset: 0x17CBD,
      size: 0x8,
      addend: 0x0,
      symName: __ZNSt3__16vectorINS_12basic_stringIcNS_11char_traitsIcEENS_9allocatorIcEEEENS4_IS6_EEE18__construct_at_endIPKS6_Li0EEEvT_SC_m,
      symObjAddr: 0xF00,
      symBinAddr: 0x100002A78,
      symSize: 0x8C,
    }
  - {
      offsetInCU: 0x17D30,
      offset: 0x17D30,
      size: 0x8,
      addend: 0x0,
      symName: __ZNKSt16initializer_listINSt3__112basic_stringIcNS0_11char_traitsIcEENS0_9allocatorIcEEEEE5beginB7v160006Ev,
      symObjAddr: 0xF8C,
      symBinAddr: 0x100002B04,
      symSize: 0x18,
    }
  - {
      offsetInCU: 0x17D56,
      offset: 0x17D56,
      size: 0x8,
      addend: 0x0,
      symName: __ZNKSt16initializer_listINSt3__112basic_stringIcNS0_11char_traitsIcEENS0_9allocatorIcEEEEE3endB7v160006Ev,
      symObjAddr: 0xFA4,
      symBinAddr: 0x100002B1C,
      symSize: 0x28,
    }
  - {
      offsetInCU: 0x17D7C,
      offset: 0x17D7C,
      size: 0x8,
      addend: 0x0,
      symName: __ZNSt3__128__exception_guard_exceptionsINS_6vectorINS_12basic_stringIcNS_11char_traitsIcEENS_9allocatorIcEEEENS5_IS7_EEE16__destroy_vectorEE10__completeB7v160006Ev,
      symObjAddr: 0xFCC,
      symBinAddr: 0x100002B44,
      symSize: 0x1C,
    }
  - {
      offsetInCU: 0x17DA2,
      offset: 0x17DA2,
      size: 0x8,
      addend: 0x0,
      symName: __ZNSt3__128__exception_guard_exceptionsINS_6vectorINS_12basic_stringIcNS_11char_traitsIcEENS_9allocatorIcEEEENS5_IS7_EEE16__destroy_vectorEED1B7v160006Ev,
      symObjAddr: 0xFE8,
      symBinAddr: 0x100002B60,
      symSize: 0x2C,
    }
  - {
      offsetInCU: 0x17DCC,
      offset: 0x17DCC,
      size: 0x8,
      addend: 0x0,
      symName: __ZNSt3__117__compressed_pairIPNS_12basic_stringIcNS_11char_traitsIcEENS_9allocatorIcEEEENS4_IS6_EEEC2B7v160006IDnNS_18__default_init_tagEEEOT_OT0_,
      symObjAddr: 0x1014,
      symBinAddr: 0x100002B8C,
      symSize: 0x40,
    }
  - {
      offsetInCU: 0x17E24,
      offset: 0x17E24,
      size: 0x8,
      addend: 0x0,
      symName: __ZNSt3__122__compressed_pair_elemIPNS_12basic_stringIcNS_11char_traitsIcEENS_9allocatorIcEEEELi0ELb0EEC2B7v160006IDnvEEOT_,
      symObjAddr: 0x1054,
      symBinAddr: 0x100002BCC,
      symSize: 0x1C,
    }
  - {
      offsetInCU: 0x17E66,
      offset: 0x17E66,
      size: 0x8,
      addend: 0x0,
      symName: __ZNSt3__122__compressed_pair_elemINS_9allocatorINS_12basic_stringIcNS_11char_traitsIcEENS1_IcEEEEEELi1ELb1EEC2B7v160006ENS_18__default_init_tagE,
      symObjAddr: 0x1070,
      symBinAddr: 0x100002BE8,
      symSize: 0x2C,
    }
  - {
      offsetInCU: 0x17E9A,
      offset: 0x17E9A,
      size: 0x8,
      addend: 0x0,
      symName: __ZNSt3__19allocatorINS_12basic_stringIcNS_11char_traitsIcEENS0_IcEEEEEC2B7v160006Ev,
      symObjAddr: 0x109C,
      symBinAddr: 0x100002C14,
      symSize: 0x2C,
    }
  - {
      offsetInCU: 0x17EC4,
      offset: 0x17EC4,
      size: 0x8,
      addend: 0x0,
      symName: __ZNSt3__116__non_trivial_ifILb1ENS_9allocatorINS_12basic_stringIcNS_11char_traitsIcEENS1_IcEEEEEEEC2B7v160006Ev,
      symObjAddr: 0x10C8,
      symBinAddr: 0x100002C40,
      symSize: 0x14,
    }
  - {
      offsetInCU: 0x17EEE,
      offset: 0x17EEE,
      size: 0x8,
      addend: 0x0,
      symName: __ZNSt3__128__exception_guard_exceptionsINS_6vectorINS_12basic_stringIcNS_11char_traitsIcEENS_9allocatorIcEEEENS5_IS7_EEE16__destroy_vectorEEC1B7v160006ESA_,
      symObjAddr: 0x10DC,
      symBinAddr: 0x100002C54,
      symSize: 0x34,
    }
  - {
      offsetInCU: 0x17F26,
      offset: 0x17F26,
      size: 0x8,
      addend: 0x0,
      symName: __ZNSt3__128__exception_guard_exceptionsINS_6vectorINS_12basic_stringIcNS_11char_traitsIcEENS_9allocatorIcEEEENS5_IS7_EEE16__destroy_vectorEEC2B7v160006ESA_,
      symObjAddr: 0x1110,
      symBinAddr: 0x100002C88,
      symSize: 0x24,
    }
  - {
      offsetInCU: 0x17F5E,
      offset: 0x17F5E,
      size: 0x8,
      addend: 0x0,
      symName: __ZNSt3__16vectorINS_12basic_stringIcNS_11char_traitsIcEENS_9allocatorIcEEEENS4_IS6_EEE16__destroy_vectorC2ERS8_,
      symObjAddr: 0x1134,
      symBinAddr: 0x100002CAC,
      symSize: 0x20,
    }
  - {
      offsetInCU: 0x17F97,
      offset: 0x17F97,
      size: 0x8,
      addend: 0x0,
      symName: __ZNKSt3__16vectorINS_12basic_stringIcNS_11char_traitsIcEENS_9allocatorIcEEEENS4_IS6_EEE8max_sizeEv,
      symObjAddr: 0x1154,
      symBinAddr: 0x100002CCC,
      symSize: 0x60,
    }
  - {
      offsetInCU: 0x17FBF,
      offset: 0x17FBF,
      size: 0x8,
      addend: 0x0,
      symName: __ZNKSt3__16vectorINS_12basic_stringIcNS_11char_traitsIcEENS_9allocatorIcEEEENS4_IS6_EEE20__throw_length_errorB7v160006Ev,
      symObjAddr: 0x11B4,
      symBinAddr: 0x100002D2C,
      symSize: 0x1C,
    }
  - {
      offsetInCU: 0x17FE5,
      offset: 0x17FE5,
      size: 0x8,
      addend: 0x0,
      symName: __ZNSt3__16vectorINS_12basic_stringIcNS_11char_traitsIcEENS_9allocatorIcEEEENS4_IS6_EEE7__allocB7v160006Ev,
      symObjAddr: 0x1210,
      symBinAddr: 0x100002D88,
      symSize: 0x28,
    }
  - {
      offsetInCU: 0x1800B,
      offset: 0x1800B,
      size: 0x8,
      addend: 0x0,
      symName: __ZNSt3__16vectorINS_12basic_stringIcNS_11char_traitsIcEENS_9allocatorIcEEEENS4_IS6_EEE9__end_capB7v160006Ev,
      symObjAddr: 0x1238,
      symBinAddr: 0x100002DB0,
      symSize: 0x28,
    }
  - {
      offsetInCU: 0x18031,
      offset: 0x18031,
      size: 0x8,
      addend: 0x0,
      symName: __ZNKSt3__16vectorINS_12basic_stringIcNS_11char_traitsIcEENS_9allocatorIcEEEENS4_IS6_EEE14__annotate_newB7v160006Em,
      symObjAddr: 0x1260,
      symBinAddr: 0x100002DD8,
      symSize: 0xC8,
    }
  - {
      offsetInCU: 0x18070,
      offset: 0x18070,
      size: 0x8,
      addend: 0x0,
      symName: __ZNSt3__116allocator_traitsINS_9allocatorINS_12basic_stringIcNS_11char_traitsIcEENS1_IcEEEEEEE8max_sizeB7v160006IS7_vvEEmRKS7_,
      symObjAddr: 0x1354,
      symBinAddr: 0x100002ECC,
      symSize: 0x28,
    }
  - {
      offsetInCU: 0x1809C,
      offset: 0x1809C,
      size: 0x8,
      addend: 0x0,
      symName: __ZNKSt3__16vectorINS_12basic_stringIcNS_11char_traitsIcEENS_9allocatorIcEEEENS4_IS6_EEE7__allocB7v160006Ev,
      symObjAddr: 0x137C,
      symBinAddr: 0x100002EF4,
      symSize: 0x28,
    }
  - {
      offsetInCU: 0x180C2,
      offset: 0x180C2,
      size: 0x8,
      addend: 0x0,
      symName: __ZNSt3__114numeric_limitsIlE3maxB7v160006Ev,
      symObjAddr: 0x13A4,
      symBinAddr: 0x100002F1C,
      symSize: 0x14,
    }
  - {
      offsetInCU: 0x180EA,
      offset: 0x180EA,
      size: 0x8,
      addend: 0x0,
      symName: __ZNKSt3__16__lessImmEclB7v160006ERKmS3_,
      symObjAddr: 0x140C,
      symBinAddr: 0x100002F84,
      symSize: 0x34,
    }
  - {
      offsetInCU: 0x1812C,
      offset: 0x1812C,
      size: 0x8,
      addend: 0x0,
      symName: __ZNSt3__114numeric_limitsImE3maxB7v160006Ev,
      symObjAddr: 0x1440,
      symBinAddr: 0x100002FB8,
      symSize: 0x14,
    }
  - {
      offsetInCU: 0x18140,
      offset: 0x18140,
      size: 0x8,
      addend: 0x0,
      symName: __ZNSt3__123__libcpp_numeric_limitsImLb1EE3maxB7v160006Ev,
      symObjAddr: 0x1454,
      symBinAddr: 0x100002FCC,
      symSize: 0x8,
    }
  - {
      offsetInCU: 0x18154,
      offset: 0x18154,
      size: 0x8,
      addend: 0x0,
      symName: __ZNKSt3__117__compressed_pairIPNS_12basic_stringIcNS_11char_traitsIcEENS_9allocatorIcEEEENS4_IS6_EEE6secondB7v160006Ev,
      symObjAddr: 0x145C,
      symBinAddr: 0x100002FD4,
      symSize: 0x24,
    }
  - {
      offsetInCU: 0x1817A,
      offset: 0x1817A,
      size: 0x8,
      addend: 0x0,
      symName: __ZNKSt3__122__compressed_pair_elemINS_9allocatorINS_12basic_stringIcNS_11char_traitsIcEENS1_IcEEEEEELi1ELb1EE5__getB7v160006Ev,
      symObjAddr: 0x1480,
      symBinAddr: 0x100002FF8,
      symSize: 0x14,
    }
  - {
      offsetInCU: 0x181A0,
      offset: 0x181A0,
      size: 0x8,
      addend: 0x0,
      symName: __ZNSt3__123__libcpp_numeric_limitsIlLb1EE3maxB7v160006Ev,
      symObjAddr: 0x1494,
      symBinAddr: 0x10000300C,
      symSize: 0x8,
    }
  - {
      offsetInCU: 0x181B4,
      offset: 0x181B4,
      size: 0x8,
      addend: 0x0,
      symName: __ZNSt12length_errorC1B7v160006EPKc,
      symObjAddr: 0x1500,
      symBinAddr: 0x100003078,
      symSize: 0x34,
    }
  - {
      offsetInCU: 0x181EC,
      offset: 0x181EC,
      size: 0x8,
      addend: 0x0,
      symName: __ZNSt12length_errorC2B7v160006EPKc,
      symObjAddr: 0x1534,
      symBinAddr: 0x1000030AC,
      symSize: 0x4C,
    }
  - {
      offsetInCU: 0x18224,
      offset: 0x18224,
      size: 0x8,
      addend: 0x0,
      symName: __ZNSt3__19allocatorINS_12basic_stringIcNS_11char_traitsIcEENS0_IcEEEEE8allocateB7v160006Em,
      symObjAddr: 0x1580,
      symBinAddr: 0x1000030F8,
      symSize: 0x5C,
    }
  - {
      offsetInCU: 0x18258,
      offset: 0x18258,
      size: 0x8,
      addend: 0x0,
      symName: __ZNSt3__117__compressed_pairIPNS_12basic_stringIcNS_11char_traitsIcEENS_9allocatorIcEEEENS4_IS6_EEE6secondB7v160006Ev,
      symObjAddr: 0x16E0,
      symBinAddr: 0x100003258,
      symSize: 0x24,
    }
  - {
      offsetInCU: 0x1827E,
      offset: 0x1827E,
      size: 0x8,
      addend: 0x0,
      symName: __ZNSt3__122__compressed_pair_elemINS_9allocatorINS_12basic_stringIcNS_11char_traitsIcEENS1_IcEEEEEELi1ELb1EE5__getB7v160006Ev,
      symObjAddr: 0x1704,
      symBinAddr: 0x10000327C,
      symSize: 0x14,
    }
  - {
      offsetInCU: 0x182A4,
      offset: 0x182A4,
      size: 0x8,
      addend: 0x0,
      symName: __ZNSt3__117__compressed_pairIPNS_12basic_stringIcNS_11char_traitsIcEENS_9allocatorIcEEEENS4_IS6_EEE5firstB7v160006Ev,
      symObjAddr: 0x1718,
      symBinAddr: 0x100003290,
      symSize: 0x24,
    }
  - {
      offsetInCU: 0x182CA,
      offset: 0x182CA,
      size: 0x8,
      addend: 0x0,
      symName: __ZNSt3__122__compressed_pair_elemIPNS_12basic_stringIcNS_11char_traitsIcEENS_9allocatorIcEEEELi0ELb0EE5__getB7v160006Ev,
      symObjAddr: 0x173C,
      symBinAddr: 0x1000032B4,
      symSize: 0x14,
    }
  - {
      offsetInCU: 0x182F0,
      offset: 0x182F0,
      size: 0x8,
      addend: 0x0,
      symName: __ZNKSt3__16vectorINS_12basic_stringIcNS_11char_traitsIcEENS_9allocatorIcEEEENS4_IS6_EEE31__annotate_contiguous_containerB7v160006EPKvSA_SA_SA_,
      symObjAddr: 0x1750,
      symBinAddr: 0x1000032C8,
      symSize: 0x20,
    }
  - {
      offsetInCU: 0x18346,
      offset: 0x18346,
      size: 0x8,
      addend: 0x0,
      symName: __ZNKSt3__16vectorINS_12basic_stringIcNS_11char_traitsIcEENS_9allocatorIcEEEENS4_IS6_EEE4dataB7v160006Ev,
      symObjAddr: 0x1770,
      symBinAddr: 0x1000032E8,
      symSize: 0x28,
    }
  - {
      offsetInCU: 0x1836C,
      offset: 0x1836C,
      size: 0x8,
      addend: 0x0,
      symName: __ZNKSt3__16vectorINS_12basic_stringIcNS_11char_traitsIcEENS_9allocatorIcEEEENS4_IS6_EEE8capacityB7v160006Ev,
      symObjAddr: 0x1798,
      symBinAddr: 0x100003310,
      symSize: 0x40,
    }
  - {
      offsetInCU: 0x18392,
      offset: 0x18392,
      size: 0x8,
      addend: 0x0,
      symName: __ZNKSt3__16vectorINS_12basic_stringIcNS_11char_traitsIcEENS_9allocatorIcEEEENS4_IS6_EEE9__end_capB7v160006Ev,
      symObjAddr: 0x17EC,
      symBinAddr: 0x100003364,
      symSize: 0x28,
    }
  - {
      offsetInCU: 0x183B8,
      offset: 0x183B8,
      size: 0x8,
      addend: 0x0,
      symName: __ZNKSt3__117__compressed_pairIPNS_12basic_stringIcNS_11char_traitsIcEENS_9allocatorIcEEEENS4_IS6_EEE5firstB7v160006Ev,
      symObjAddr: 0x1814,
      symBinAddr: 0x10000338C,
      symSize: 0x24,
    }
  - {
      offsetInCU: 0x183DE,
      offset: 0x183DE,
      size: 0x8,
      addend: 0x0,
      symName: __ZNKSt3__122__compressed_pair_elemIPNS_12basic_stringIcNS_11char_traitsIcEENS_9allocatorIcEEEELi0ELb0EE5__getB7v160006Ev,
      symObjAddr: 0x1838,
      symBinAddr: 0x1000033B0,
      symSize: 0x14,
    }
  - {
      offsetInCU: 0x1841D,
      offset: 0x1841D,
      size: 0x8,
      addend: 0x0,
      symName: __ZNSt3__16vectorINS_12basic_stringIcNS_11char_traitsIcEENS_9allocatorIcEEEENS4_IS6_EEE21_ConstructTransactionC1B7v160006ERS8_m,
      symObjAddr: 0x184C,
      symBinAddr: 0x1000033C4,
      symSize: 0x3C,
    }
  - {
      offsetInCU: 0x18465,
      offset: 0x18465,
      size: 0x8,
      addend: 0x0,
      symName: __ZNSt3__16vectorINS_12basic_stringIcNS_11char_traitsIcEENS_9allocatorIcEEEENS4_IS6_EEE21_ConstructTransactionD1B7v160006Ev,
      symObjAddr: 0x197C,
      symBinAddr: 0x1000034F4,
      symSize: 0x2C,
    }
  - {
      offsetInCU: 0x1848F,
      offset: 0x1848F,
      size: 0x8,
      addend: 0x0,
      symName: __ZNSt3__16vectorINS_12basic_stringIcNS_11char_traitsIcEENS_9allocatorIcEEEENS4_IS6_EEE21_ConstructTransactionC2B7v160006ERS8_m,
      symObjAddr: 0x19A8,
      symBinAddr: 0x100003520,
      symSize: 0x4C,
    }
  - {
      offsetInCU: 0x184D7,
      offset: 0x184D7,
      size: 0x8,
      addend: 0x0,
      symName: __ZNSt3__129_AllocatorDestroyRangeReverseINS_9allocatorINS_12basic_stringIcNS_11char_traitsIcEENS1_IcEEEEEEPS6_EC1B7v160006ERS7_RS8_SB_,
      symObjAddr: 0x1A40,
      symBinAddr: 0x1000035B8,
      symSize: 0x44,
    }
  - {
      offsetInCU: 0x1852E,
      offset: 0x1852E,
      size: 0x8,
      addend: 0x0,
      symName: __ZNSt3__116allocator_traitsINS_9allocatorINS_12basic_stringIcNS_11char_traitsIcEENS1_IcEEEEEEE9constructB7v160006IS6_JRKS6_EvvEEvRS7_PT_DpOT0_,
      symObjAddr: 0x1A84,
      symBinAddr: 0x1000035FC,
      symSize: 0x30,
    }
  - {
      offsetInCU: 0x18583,
      offset: 0x18583,
      size: 0x8,
      addend: 0x0,
      symName: __ZNSt3__128__exception_guard_exceptionsINS_29_AllocatorDestroyRangeReverseINS_9allocatorINS_12basic_stringIcNS_11char_traitsIcEENS2_IcEEEEEEPS7_EEE10__completeB7v160006Ev,
      symObjAddr: 0x1AB4,
      symBinAddr: 0x10000362C,
      symSize: 0x1C,
    }
  - {
      offsetInCU: 0x185A9,
      offset: 0x185A9,
      size: 0x8,
      addend: 0x0,
      symName: __ZNSt3__128__exception_guard_exceptionsINS_29_AllocatorDestroyRangeReverseINS_9allocatorINS_12basic_stringIcNS_11char_traitsIcEENS2_IcEEEEEEPS7_EEED1B7v160006Ev,
      symObjAddr: 0x1AD0,
      symBinAddr: 0x100003648,
      symSize: 0x2C,
    }
  - {
      offsetInCU: 0x185D3,
      offset: 0x185D3,
      size: 0x8,
      addend: 0x0,
      symName: __ZNSt3__128__exception_guard_exceptionsINS_29_AllocatorDestroyRangeReverseINS_9allocatorINS_12basic_stringIcNS_11char_traitsIcEENS2_IcEEEEEEPS7_EEEC1B7v160006ESA_,
      symObjAddr: 0x1AFC,
      symBinAddr: 0x100003674,
      symSize: 0x34,
    }
  - {
      offsetInCU: 0x1860C,
      offset: 0x1860C,
      size: 0x8,
      addend: 0x0,
      symName: __ZNSt3__128__exception_guard_exceptionsINS_29_AllocatorDestroyRangeReverseINS_9allocatorINS_12basic_stringIcNS_11char_traitsIcEENS2_IcEEEEEEPS7_EEEC2B7v160006ESA_,
      symObjAddr: 0x1B30,
      symBinAddr: 0x1000036A8,
      symSize: 0x30,
    }
  - {
      offsetInCU: 0x18645,
      offset: 0x18645,
      size: 0x8,
      addend: 0x0,
      symName: __ZNSt3__129_AllocatorDestroyRangeReverseINS_9allocatorINS_12basic_stringIcNS_11char_traitsIcEENS1_IcEEEEEEPS6_EC2B7v160006ERS7_RS8_SB_,
      symObjAddr: 0x1B60,
      symBinAddr: 0x1000036D8,
      symSize: 0x38,
    }
  - {
      offsetInCU: 0x1869C,
      offset: 0x1869C,
      size: 0x8,
      addend: 0x0,
      symName: __ZNSt3__128__exception_guard_exceptionsINS_29_AllocatorDestroyRangeReverseINS_9allocatorINS_12basic_stringIcNS_11char_traitsIcEENS2_IcEEEEEEPS7_EEED2B7v160006Ev,
      symObjAddr: 0x1BD4,
      symBinAddr: 0x10000374C,
      symSize: 0x50,
    }
  - {
      offsetInCU: 0x186C6,
      offset: 0x186C6,
      size: 0x8,
      addend: 0x0,
      symName: __ZNKSt3__129_AllocatorDestroyRangeReverseINS_9allocatorINS_12basic_stringIcNS_11char_traitsIcEENS1_IcEEEEEEPS6_EclB7v160006Ev,
      symObjAddr: 0x1C24,
      symBinAddr: 0x10000379C,
      symSize: 0x68,
    }
  - {
      offsetInCU: 0x186EC,
      offset: 0x186EC,
      size: 0x8,
      addend: 0x0,
      symName: __ZNSt3__116reverse_iteratorIPNS_12basic_stringIcNS_11char_traitsIcEENS_9allocatorIcEEEEEC1B7v160006ES7_,
      symObjAddr: 0x1CFC,
      symBinAddr: 0x100003874,
      symSize: 0x34,
    }
  - {
      offsetInCU: 0x18724,
      offset: 0x18724,
      size: 0x8,
      addend: 0x0,
      symName: __ZNSt3__116allocator_traitsINS_9allocatorINS_12basic_stringIcNS_11char_traitsIcEENS1_IcEEEEEEE7destroyB7v160006IS6_vvEEvRS7_PT_,
      symObjAddr: 0x1D78,
      symBinAddr: 0x1000038F0,
      symSize: 0x28,
    }
  - {
      offsetInCU: 0x1875F,
      offset: 0x1875F,
      size: 0x8,
      addend: 0x0,
      symName: __ZNSt3__116reverse_iteratorIPNS_12basic_stringIcNS_11char_traitsIcEENS_9allocatorIcEEEEEppB7v160006Ev,
      symObjAddr: 0x1DC4,
      symBinAddr: 0x10000393C,
      symSize: 0x20,
    }
  - {
      offsetInCU: 0x18785,
      offset: 0x18785,
      size: 0x8,
      addend: 0x0,
      symName: __ZNKSt3__116reverse_iteratorIPNS_12basic_stringIcNS_11char_traitsIcEENS_9allocatorIcEEEEE4baseB7v160006Ev,
      symObjAddr: 0x1DE4,
      symBinAddr: 0x10000395C,
      symSize: 0x18,
    }
  - {
      offsetInCU: 0x187B0,
      offset: 0x187B0,
      size: 0x8,
      addend: 0x0,
      symName: __ZNSt3__119__to_address_helperINS_16reverse_iteratorIPNS_12basic_stringIcNS_11char_traitsIcEENS_9allocatorIcEEEEEEvE6__callB7v160006ERKS9_,
      symObjAddr: 0x1E44,
      symBinAddr: 0x1000039BC,
      symSize: 0x38,
    }
  - {
      offsetInCU: 0x187D3,
      offset: 0x187D3,
      size: 0x8,
      addend: 0x0,
      symName: __ZNKSt3__116reverse_iteratorIPNS_12basic_stringIcNS_11char_traitsIcEENS_9allocatorIcEEEEEptB7v160006Ev,
      symObjAddr: 0x1E7C,
      symBinAddr: 0x1000039F4,
      symSize: 0x2C,
    }
  - {
      offsetInCU: 0x187F9,
      offset: 0x187F9,
      size: 0x8,
      addend: 0x0,
      symName: __ZNSt3__116reverse_iteratorIPNS_12basic_stringIcNS_11char_traitsIcEENS_9allocatorIcEEEEEC2B7v160006ES7_,
      symObjAddr: 0x1F8C,
      symBinAddr: 0x100003B04,
      symSize: 0x28,
    }
  - {
      offsetInCU: 0x18831,
      offset: 0x18831,
      size: 0x8,
      addend: 0x0,
      symName: __ZNSt3__16vectorINS_12basic_stringIcNS_11char_traitsIcEENS_9allocatorIcEEEENS4_IS6_EEE21_ConstructTransactionD2B7v160006Ev,
      symObjAddr: 0x1FB4,
      symBinAddr: 0x100003B2C,
      symSize: 0x20,
    }
  - {
      offsetInCU: 0x1885B,
      offset: 0x1885B,
      size: 0x8,
      addend: 0x0,
      symName: __ZNSt3__128__exception_guard_exceptionsINS_6vectorINS_12basic_stringIcNS_11char_traitsIcEENS_9allocatorIcEEEENS5_IS7_EEE16__destroy_vectorEED2B7v160006Ev,
      symObjAddr: 0x1FD4,
      symBinAddr: 0x100003B4C,
      symSize: 0x50,
    }
  - {
      offsetInCU: 0x18885,
      offset: 0x18885,
      size: 0x8,
      addend: 0x0,
      symName: __ZNSt3__16vectorINS_12basic_stringIcNS_11char_traitsIcEENS_9allocatorIcEEEENS4_IS6_EEE16__destroy_vectorclB7v160006Ev,
      symObjAddr: 0x2024,
      symBinAddr: 0x100003B9C,
      symSize: 0x9C,
    }
  - {
      offsetInCU: 0x188AB,
      offset: 0x188AB,
      size: 0x8,
      addend: 0x0,
      symName: __ZNKSt3__16vectorINS_12basic_stringIcNS_11char_traitsIcEENS_9allocatorIcEEEENS4_IS6_EEE17__annotate_deleteB7v160006Ev,
      symObjAddr: 0x20C0,
      symBinAddr: 0x100003C38,
      symSize: 0xD4,
    }
  - {
      offsetInCU: 0x188D1,
      offset: 0x188D1,
      size: 0x8,
      addend: 0x0,
      symName: __ZNSt3__16vectorINS_12basic_stringIcNS_11char_traitsIcEENS_9allocatorIcEEEENS4_IS6_EEE7__clearB7v160006Ev,
      symObjAddr: 0x21A4,
      symBinAddr: 0x100003D1C,
      symSize: 0x28,
    }
  - {
      offsetInCU: 0x188F7,
      offset: 0x188F7,
      size: 0x8,
      addend: 0x0,
      symName: __ZNSt3__116allocator_traitsINS_9allocatorINS_12basic_stringIcNS_11char_traitsIcEENS1_IcEEEEEEE10deallocateB7v160006ERS7_PS6_m,
      symObjAddr: 0x21CC,
      symBinAddr: 0x100003D44,
      symSize: 0x34,
    }
  - {
      offsetInCU: 0x18939,
      offset: 0x18939,
      size: 0x8,
      addend: 0x0,
      symName: __ZNKSt3__16vectorINS_12basic_stringIcNS_11char_traitsIcEENS_9allocatorIcEEEENS4_IS6_EEE4sizeB7v160006Ev,
      symObjAddr: 0x2200,
      symBinAddr: 0x100003D78,
      symSize: 0x28,
    }
  - {
      offsetInCU: 0x1895F,
      offset: 0x1895F,
      size: 0x8,
      addend: 0x0,
      symName: __ZNSt3__16vectorINS_12basic_stringIcNS_11char_traitsIcEENS_9allocatorIcEEEENS4_IS6_EEE22__base_destruct_at_endB7v160006EPS6_,
      symObjAddr: 0x2228,
      symBinAddr: 0x100003DA0,
      symSize: 0x8C,
    }
  - {
      offsetInCU: 0x189A3,
      offset: 0x189A3,
      size: 0x8,
      addend: 0x0,
      symName: __ZNSt3__19allocatorINS_12basic_stringIcNS_11char_traitsIcEENS0_IcEEEEE10deallocateB7v160006EPS5_m,
      symObjAddr: 0x22B4,
      symBinAddr: 0x100003E2C,
      symSize: 0x44,
    }
  - {
      offsetInCU: 0x189E5,
      offset: 0x189E5,
      size: 0x8,
      addend: 0x0,
      symName: __ZNSt3__16vectorINS_12basic_stringIcNS_11char_traitsIcEENS_9allocatorIcEEEENS4_IS6_EEED2B7v160006Ev,
      symObjAddr: 0x2400,
      symBinAddr: 0x100003F78,
      symSize: 0x44,
    }
  - {
      offsetInCU: 0x18AC5,
      offset: 0x18AC5,
      size: 0x8,
      addend: 0x0,
      symName: __ZNSt3__113basic_fstreamIcNS_11char_traitsIcEEEC1EPKcj,
      symObjAddr: 0x2444,
      symBinAddr: 0x100003FBC,
      symSize: 0x180,
    }
  - {
      offsetInCU: 0x18B0F,
      offset: 0x18B0F,
      size: 0x8,
      addend: 0x0,
      symName: __ZNSt3__16vectorINS_14basic_ofstreamIcNS_11char_traitsIcEEEENS_9allocatorIS4_EEEC1B7v160006Ev,
      symObjAddr: 0x25C4,
      symBinAddr: 0x10000413C,
      symSize: 0x2C,
    }
  - {
      offsetInCU: 0x18B39,
      offset: 0x18B39,
      size: 0x8,
      addend: 0x0,
      symName: __ZNSt3__16vectorINS_14basic_ofstreamIcNS_11char_traitsIcEEEENS_9allocatorIS4_EEE7reserveEm,
      symObjAddr: 0x25F0,
      symBinAddr: 0x100004168,
      symSize: 0xE8,
    }
  - {
      offsetInCU: 0x18B95,
      offset: 0x18B95,
      size: 0x8,
      addend: 0x0,
      symName: __ZNSt3__16vectorINS_14basic_ofstreamIcNS_11char_traitsIcEEEENS_9allocatorIS4_EEE9push_backB7v160006EOS4_,
      symObjAddr: 0x26D8,
      symBinAddr: 0x100004250,
      symSize: 0x6C,
    }
  - {
      offsetInCU: 0x18BCC,
      offset: 0x18BCC,
      size: 0x8,
      addend: 0x0,
      symName: __ZNSt3__16vectorINS_12basic_stringIcNS_11char_traitsIcEENS_9allocatorIcEEEENS4_IS6_EEEixB7v160006Em,
      symObjAddr: 0x2744,
      symBinAddr: 0x1000042BC,
      symSize: 0x2C,
    }
  - {
      offsetInCU: 0x18C03,
      offset: 0x18C03,
      size: 0x8,
      addend: 0x0,
      symName: __ZNSt3__114basic_ofstreamIcNS_11char_traitsIcEEEC1ERKNS_12basic_stringIcS2_NS_9allocatorIcEEEEj,
      symObjAddr: 0x2770,
      symBinAddr: 0x1000042E8,
      symSize: 0x16C,
    }
  - {
      offsetInCU: 0x18C52,
      offset: 0x18C52,
      size: 0x8,
      addend: 0x0,
      symName: __ZNSt3__114basic_ofstreamIcNS_11char_traitsIcEEED1Ev,
      symObjAddr: 0x28DC,
      symBinAddr: 0x100004454,
      symSize: 0x40,
    }
  - {
      offsetInCU: 0x18C7E,
      offset: 0x18C7E,
      size: 0x8,
      addend: 0x0,
      symName: __Z4testRNSt3__114basic_ofstreamIcNS_11char_traitsIcEEEES4_i,
      symObjAddr: 0x291C,
      symBinAddr: 0x100004494,
      symSize: 0x9C,
    }
  - {
      offsetInCU: 0x18CD1,
      offset: 0x18CD1,
      size: 0x8,
      addend: 0x0,
      symName: __ZNSt3__16vectorINS_14basic_ofstreamIcNS_11char_traitsIcEEEENS_9allocatorIS4_EEEixB7v160006Em,
      symObjAddr: 0x29B8,
      symBinAddr: 0x100004530,
      symSize: 0x2C,
    }
  - {
      offsetInCU: 0x18D08,
      offset: 0x18D08,
      size: 0x8,
      addend: 0x0,
      symName: __ZNSt3__16vectorINS_14basic_ofstreamIcNS_11char_traitsIcEEEENS_9allocatorIS4_EEED1B7v160006Ev,
      symObjAddr: 0x29E4,
      symBinAddr: 0x10000455C,
      symSize: 0x2C,
    }
  - {
      offsetInCU: 0x18D37,
      offset: 0x18D37,
      size: 0x8,
      addend: 0x0,
      symName: __ZNSt3__113basic_fstreamIcNS_11char_traitsIcEEED1Ev,
      symObjAddr: 0x2A10,
      symBinAddr: 0x100004588,
      symSize: 0x40,
    }
  - {
      offsetInCU: 0x18D63,
      offset: 0x18D63,
      size: 0x8,
      addend: 0x0,
      symName: __ZNSt3__19basic_iosIcNS_11char_traitsIcEEEC2B7v160006Ev,
      symObjAddr: 0x2A50,
      symBinAddr: 0x1000045C8,
      symSize: 0x44,
    }
  - {
      offsetInCU: 0x18D8D,
      offset: 0x18D8D,
      size: 0x8,
      addend: 0x0,
      symName: __ZNSt3__114basic_iostreamIcNS_11char_traitsIcEEEC2B7v160006EPNS_15basic_streambufIcS2_EE,
      symObjAddr: 0x2A94,
      symBinAddr: 0x10000460C,
      symSize: 0xAC,
    }
  - {
      offsetInCU: 0x18DD3,
      offset: 0x18DD3,
      size: 0x8,
      addend: 0x0,
      symName: __ZNSt3__19basic_iosIcNS_11char_traitsIcEEE8setstateB7v160006Ej,
      symObjAddr: 0x2B40,
      symBinAddr: 0x1000046B8,
      symSize: 0x2C,
    }
  - {
      offsetInCU: 0x18E08,
      offset: 0x18E08,
      size: 0x8,
      addend: 0x0,
      symName: __ZNSt3__113basic_fstreamIcNS_11char_traitsIcEEED0Ev,
      symObjAddr: 0x2B6C,
      symBinAddr: 0x1000046E4,
      symSize: 0x30,
    }
  - {
      offsetInCU: 0x18E34,
      offset: 0x18E34,
      size: 0x8,
      addend: 0x0,
      symName: __ZThn16_NSt3__113basic_fstreamIcNS_11char_traitsIcEEED1Ev,
      symObjAddr: 0x2B9C,
      symBinAddr: 0x100004714,
      symSize: 0x1C,
    }
  - {
      offsetInCU: 0x18E4A,
      offset: 0x18E4A,
      size: 0x8,
      addend: 0x0,
      symName: __ZThn16_NSt3__113basic_fstreamIcNS_11char_traitsIcEEED0Ev,
      symObjAddr: 0x2BB8,
      symBinAddr: 0x100004730,
      symSize: 0x18,
    }
  - {
      offsetInCU: 0x18E60,
      offset: 0x18E60,
      size: 0x8,
      addend: 0x0,
      symName: __ZTv0_n24_NSt3__113basic_fstreamIcNS_11char_traitsIcEEED1Ev,
      symObjAddr: 0x2BD0,
      symBinAddr: 0x100004748,
      symSize: 0x28,
    }
  - {
      offsetInCU: 0x18E76,
      offset: 0x18E76,
      size: 0x8,
      addend: 0x0,
      symName: __ZTv0_n24_NSt3__113basic_fstreamIcNS_11char_traitsIcEEED0Ev,
      symObjAddr: 0x2BF8,
      symBinAddr: 0x100004770,
      symSize: 0x20,
    }
  - {
      offsetInCU: 0x18E8C,
      offset: 0x18E8C,
      size: 0x8,
      addend: 0x0,
      symName: __ZNSt3__18ios_baseC2B7v160006Ev,
      symObjAddr: 0x2C18,
      symBinAddr: 0x100004790,
      symSize: 0x24,
    }
  - {
      offsetInCU: 0x18EB6,
      offset: 0x18EB6,
      size: 0x8,
      addend: 0x0,
      symName: __ZNSt3__113basic_istreamIcNS_11char_traitsIcEEEC2B7v160006EPNS_15basic_streambufIcS2_EE,
      symObjAddr: 0x2C3C,
      symBinAddr: 0x1000047B4,
      symSize: 0x64,
    }
  - {
      offsetInCU: 0x18EFB,
      offset: 0x18EFB,
      size: 0x8,
      addend: 0x0,
      symName: __ZNSt3__113basic_ostreamIcNS_11char_traitsIcEEEC2B7v160006Ev,
      symObjAddr: 0x2CA0,
      symBinAddr: 0x100004818,
      symSize: 0x34,
    }
  - {
      offsetInCU: 0x18F32,
      offset: 0x18F32,
      size: 0x8,
      addend: 0x0,
      symName: __ZNSt3__19basic_iosIcNS_11char_traitsIcEEE4initB7v160006EPNS_15basic_streambufIcS2_EE,
      symObjAddr: 0x2CD4,
      symBinAddr: 0x10000484C,
      symSize: 0x44,
    }
  - {
      offsetInCU: 0x18F69,
      offset: 0x18F69,
      size: 0x8,
      addend: 0x0,
      symName: __ZNSt3__111char_traitsIcE3eofEv,
      symObjAddr: 0x2D18,
      symBinAddr: 0x100004890,
      symSize: 0x8,
    }
  - {
      offsetInCU: 0x18F7D,
      offset: 0x18F7D,
      size: 0x8,
      addend: 0x0,
      symName: __ZNSt3__18ios_base8setstateB7v160006Ej,
      symObjAddr: 0x2D20,
      symBinAddr: 0x100004898,
      symSize: 0x34,
    }
  - {
      offsetInCU: 0x18FB4,
      offset: 0x18FB4,
      size: 0x8,
      addend: 0x0,
      symName: __ZNSt3__16vectorINS_14basic_ofstreamIcNS_11char_traitsIcEEEENS_9allocatorIS4_EEEC2B7v160006Ev,
      symObjAddr: 0x2D54,
      symBinAddr: 0x1000048CC,
      symSize: 0x58,
    }
  - {
      offsetInCU: 0x18FDE,
      offset: 0x18FDE,
      size: 0x8,
      addend: 0x0,
      symName: __ZNSt3__117__compressed_pairIPNS_14basic_ofstreamIcNS_11char_traitsIcEEEENS_9allocatorIS4_EEEC1B7v160006IDnNS_18__default_init_tagEEEOT_OT0_,
      symObjAddr: 0x2DAC,
      symBinAddr: 0x100004924,
      symSize: 0x3C,
    }
  - {
      offsetInCU: 0x19036,
      offset: 0x19036,
      size: 0x8,
      addend: 0x0,
      symName: __ZNSt3__117__compressed_pairIPNS_14basic_ofstreamIcNS_11char_traitsIcEEEENS_9allocatorIS4_EEEC2B7v160006IDnNS_18__default_init_tagEEEOT_OT0_,
      symObjAddr: 0x2DF8,
      symBinAddr: 0x100004970,
      symSize: 0x40,
    }
  - {
      offsetInCU: 0x1908E,
      offset: 0x1908E,
      size: 0x8,
      addend: 0x0,
      symName: __ZNSt3__122__compressed_pair_elemIPNS_14basic_ofstreamIcNS_11char_traitsIcEEEELi0ELb0EEC2B7v160006IDnvEEOT_,
      symObjAddr: 0x2E38,
      symBinAddr: 0x1000049B0,
      symSize: 0x1C,
    }
  - {
      offsetInCU: 0x190D0,
      offset: 0x190D0,
      size: 0x8,
      addend: 0x0,
      symName: __ZNSt3__122__compressed_pair_elemINS_9allocatorINS_14basic_ofstreamIcNS_11char_traitsIcEEEEEELi1ELb1EEC2B7v160006ENS_18__default_init_tagE,
      symObjAddr: 0x2E54,
      symBinAddr: 0x1000049CC,
      symSize: 0x2C,
    }
  - {
      offsetInCU: 0x19104,
      offset: 0x19104,
      size: 0x8,
      addend: 0x0,
      symName: __ZNSt3__19allocatorINS_14basic_ofstreamIcNS_11char_traitsIcEEEEEC2B7v160006Ev,
      symObjAddr: 0x2E80,
      symBinAddr: 0x1000049F8,
      symSize: 0x2C,
    }
  - {
      offsetInCU: 0x1912E,
      offset: 0x1912E,
      size: 0x8,
      addend: 0x0,
      symName: __ZNSt3__116__non_trivial_ifILb1ENS_9allocatorINS_14basic_ofstreamIcNS_11char_traitsIcEEEEEEEC2B7v160006Ev,
      symObjAddr: 0x2EAC,
      symBinAddr: 0x100004A24,
      symSize: 0x14,
    }
  - {
      offsetInCU: 0x19158,
      offset: 0x19158,
      size: 0x8,
      addend: 0x0,
      symName: __ZNKSt3__16vectorINS_14basic_ofstreamIcNS_11char_traitsIcEEEENS_9allocatorIS4_EEE8capacityB7v160006Ev,
      symObjAddr: 0x2EC0,
      symBinAddr: 0x100004A38,
      symSize: 0x40,
    }
  - {
      offsetInCU: 0x1917E,
      offset: 0x1917E,
      size: 0x8,
      addend: 0x0,
      symName: __ZNKSt3__16vectorINS_14basic_ofstreamIcNS_11char_traitsIcEEEENS_9allocatorIS4_EEE8max_sizeEv,
      symObjAddr: 0x2F00,
      symBinAddr: 0x100004A78,
      symSize: 0x60,
    }
  - {
      offsetInCU: 0x191A6,
      offset: 0x191A6,
      size: 0x8,
      addend: 0x0,
      symName: __ZNKSt3__16vectorINS_14basic_ofstreamIcNS_11char_traitsIcEEEENS_9allocatorIS4_EEE20__throw_length_errorB7v160006Ev,
      symObjAddr: 0x2F60,
      symBinAddr: 0x100004AD8,
      symSize: 0x1C,
    }
  - {
      offsetInCU: 0x191CC,
      offset: 0x191CC,
      size: 0x8,
      addend: 0x0,
      symName: __ZNSt3__16vectorINS_14basic_ofstreamIcNS_11char_traitsIcEEEENS_9allocatorIS4_EEE7__allocB7v160006Ev,
      symObjAddr: 0x2F7C,
      symBinAddr: 0x100004AF4,
      symSize: 0x28,
    }
  - {
      offsetInCU: 0x191F2,
      offset: 0x191F2,
      size: 0x8,
      addend: 0x0,
      symName: __ZNKSt3__16vectorINS_14basic_ofstreamIcNS_11char_traitsIcEEEENS_9allocatorIS4_EEE4sizeB7v160006Ev,
      symObjAddr: 0x2FA4,
      symBinAddr: 0x100004B1C,
      symSize: 0x28,
    }
  - {
      offsetInCU: 0x19218,
      offset: 0x19218,
      size: 0x8,
      addend: 0x0,
      symName: __ZNSt3__114__split_bufferINS_14basic_ofstreamIcNS_11char_traitsIcEEEERNS_9allocatorIS4_EEEC1EmmS7_,
      symObjAddr: 0x2FCC,
      symBinAddr: 0x100004B44,
      symSize: 0x44,
    }
  - {
      offsetInCU: 0x1926E,
      offset: 0x1926E,
      size: 0x8,
      addend: 0x0,
      symName: __ZNSt3__114__split_bufferINS_14basic_ofstreamIcNS_11char_traitsIcEEEERNS_9allocatorIS4_EEED1Ev,
      symObjAddr: 0x3128,
      symBinAddr: 0x100004CA0,
      symSize: 0x2C,
    }
  - {
      offsetInCU: 0x1929A,
      offset: 0x1929A,
      size: 0x8,
      addend: 0x0,
      symName: __ZNKSt3__16vectorINS_14basic_ofstreamIcNS_11char_traitsIcEEEENS_9allocatorIS4_EEE9__end_capB7v160006Ev,
      symObjAddr: 0x3154,
      symBinAddr: 0x100004CCC,
      symSize: 0x28,
    }
  - {
      offsetInCU: 0x192C0,
      offset: 0x192C0,
      size: 0x8,
      addend: 0x0,
      symName: __ZNKSt3__117__compressed_pairIPNS_14basic_ofstreamIcNS_11char_traitsIcEEEENS_9allocatorIS4_EEE5firstB7v160006Ev,
      symObjAddr: 0x317C,
      symBinAddr: 0x100004CF4,
      symSize: 0x24,
    }
  - {
      offsetInCU: 0x192E6,
      offset: 0x192E6,
      size: 0x8,
      addend: 0x0,
      symName: __ZNKSt3__122__compressed_pair_elemIPNS_14basic_ofstreamIcNS_11char_traitsIcEEEELi0ELb0EE5__getB7v160006Ev,
      symObjAddr: 0x31A0,
      symBinAddr: 0x100004D18,
      symSize: 0x14,
    }
  - {
      offsetInCU: 0x19316,
      offset: 0x19316,
      size: 0x8,
      addend: 0x0,
      symName: __ZNSt3__116allocator_traitsINS_9allocatorINS_14basic_ofstreamIcNS_11char_traitsIcEEEEEEE8max_sizeB7v160006IS6_vvEEmRKS6_,
      symObjAddr: 0x31B4,
      symBinAddr: 0x100004D2C,
      symSize: 0x28,
    }
  - {
      offsetInCU: 0x19342,
      offset: 0x19342,
      size: 0x8,
      addend: 0x0,
      symName: __ZNKSt3__16vectorINS_14basic_ofstreamIcNS_11char_traitsIcEEEENS_9allocatorIS4_EEE7__allocB7v160006Ev,
      symObjAddr: 0x31DC,
      symBinAddr: 0x100004D54,
      symSize: 0x28,
    }
  - {
      offsetInCU: 0x19368,
      offset: 0x19368,
      size: 0x8,
      addend: 0x0,
      symName: __ZNKSt3__117__compressed_pairIPNS_14basic_ofstreamIcNS_11char_traitsIcEEEENS_9allocatorIS4_EEE6secondB7v160006Ev,
      symObjAddr: 0x3204,
      symBinAddr: 0x100004D7C,
      symSize: 0x24,
    }
  - {
      offsetInCU: 0x1938E,
      offset: 0x1938E,
      size: 0x8,
      addend: 0x0,
      symName: __ZNKSt3__122__compressed_pair_elemINS_9allocatorINS_14basic_ofstreamIcNS_11char_traitsIcEEEEEELi1ELb1EE5__getB7v160006Ev,
      symObjAddr: 0x3228,
      symBinAddr: 0x100004DA0,
      symSize: 0x14,
    }
  - {
      offsetInCU: 0x193B4,
      offset: 0x193B4,
      size: 0x8,
      addend: 0x0,
      symName: __ZNSt3__117__compressed_pairIPNS_14basic_ofstreamIcNS_11char_traitsIcEEEENS_9allocatorIS4_EEE6secondB7v160006Ev,
      symObjAddr: 0x323C,
      symBinAddr: 0x100004DB4,
      symSize: 0x24,
    }
  - {
      offsetInCU: 0x193DA,
      offset: 0x193DA,
      size: 0x8,
      addend: 0x0,
      symName: __ZNSt3__122__compressed_pair_elemINS_9allocatorINS_14basic_ofstreamIcNS_11char_traitsIcEEEEEELi1ELb1EE5__getB7v160006Ev,
      symObjAddr: 0x3260,
      symBinAddr: 0x100004DD8,
      symSize: 0x14,
    }
  - {
      offsetInCU: 0x19400,
      offset: 0x19400,
      size: 0x8,
      addend: 0x0,
      symName: __ZNSt3__114__split_bufferINS_14basic_ofstreamIcNS_11char_traitsIcEEEERNS_9allocatorIS4_EEEC2EmmS7_,
      symObjAddr: 0x3274,
      symBinAddr: 0x100004DEC,
      symSize: 0xE0,
    }
  - {
      offsetInCU: 0x19473,
      offset: 0x19473,
      size: 0x8,
      addend: 0x0,
      symName: __ZNSt3__117__compressed_pairIPNS_14basic_ofstreamIcNS_11char_traitsIcEEEERNS_9allocatorIS4_EEEC1B7v160006IDnS8_EEOT_OT0_,
      symObjAddr: 0x3354,
      symBinAddr: 0x100004ECC,
      symSize: 0x3C,
    }
  - {
      offsetInCU: 0x194CB,
      offset: 0x194CB,
      size: 0x8,
      addend: 0x0,
      symName: __ZNSt3__114__split_bufferINS_14basic_ofstreamIcNS_11char_traitsIcEEEERNS_9allocatorIS4_EEE7__allocB7v160006Ev,
      symObjAddr: 0x33D0,
      symBinAddr: 0x100004F48,
      symSize: 0x28,
    }
  - {
      offsetInCU: 0x194F1,
      offset: 0x194F1,
      size: 0x8,
      addend: 0x0,
      symName: __ZNSt3__114__split_bufferINS_14basic_ofstreamIcNS_11char_traitsIcEEEERNS_9allocatorIS4_EEE9__end_capB7v160006Ev,
      symObjAddr: 0x33F8,
      symBinAddr: 0x100004F70,
      symSize: 0x28,
    }
  - {
      offsetInCU: 0x19517,
      offset: 0x19517,
      size: 0x8,
      addend: 0x0,
      symName: __ZNSt3__117__compressed_pairIPNS_14basic_ofstreamIcNS_11char_traitsIcEEEERNS_9allocatorIS4_EEEC2B7v160006IDnS8_EEOT_OT0_,
      symObjAddr: 0x3420,
      symBinAddr: 0x100004F98,
      symSize: 0x48,
    }
  - {
      offsetInCU: 0x1956F,
      offset: 0x1956F,
      size: 0x8,
      addend: 0x0,
      symName: __ZNSt3__122__compressed_pair_elemIRNS_9allocatorINS_14basic_ofstreamIcNS_11char_traitsIcEEEEEELi1ELb0EEC2B7v160006IS7_vEEOT_,
      symObjAddr: 0x3468,
      symBinAddr: 0x100004FE0,
      symSize: 0x20,
    }
  - {
      offsetInCU: 0x195B1,
      offset: 0x195B1,
      size: 0x8,
      addend: 0x0,
      symName: __ZNSt3__19allocatorINS_14basic_ofstreamIcNS_11char_traitsIcEEEEE8allocateB7v160006Em,
      symObjAddr: 0x3488,
      symBinAddr: 0x100005000,
      symSize: 0x5C,
    }
  - {
      offsetInCU: 0x195E5,
      offset: 0x195E5,
      size: 0x8,
      addend: 0x0,
      symName: __ZNSt3__117__compressed_pairIPNS_14basic_ofstreamIcNS_11char_traitsIcEEEERNS_9allocatorIS4_EEE6secondB7v160006Ev,
      symObjAddr: 0x34E4,
      symBinAddr: 0x10000505C,
      symSize: 0x28,
    }
  - {
      offsetInCU: 0x1960B,
      offset: 0x1960B,
      size: 0x8,
      addend: 0x0,
      symName: __ZNSt3__122__compressed_pair_elemIRNS_9allocatorINS_14basic_ofstreamIcNS_11char_traitsIcEEEEEELi1ELb0EE5__getB7v160006Ev,
      symObjAddr: 0x350C,
      symBinAddr: 0x100005084,
      symSize: 0x18,
    }
  - {
      offsetInCU: 0x19631,
      offset: 0x19631,
      size: 0x8,
      addend: 0x0,
      symName: __ZNSt3__117__compressed_pairIPNS_14basic_ofstreamIcNS_11char_traitsIcEEEERNS_9allocatorIS4_EEE5firstB7v160006Ev,
      symObjAddr: 0x3524,
      symBinAddr: 0x10000509C,
      symSize: 0x24,
    }
  - {
      offsetInCU: 0x19657,
      offset: 0x19657,
      size: 0x8,
      addend: 0x0,
      symName: __ZNSt3__122__compressed_pair_elemIPNS_14basic_ofstreamIcNS_11char_traitsIcEEEELi0ELb0EE5__getB7v160006Ev,
      symObjAddr: 0x3548,
      symBinAddr: 0x1000050C0,
      symSize: 0x14,
    }
  - {
      offsetInCU: 0x1967D,
      offset: 0x1967D,
      size: 0x8,
      addend: 0x0,
      symName: __ZNKSt3__16vectorINS_14basic_ofstreamIcNS_11char_traitsIcEEEENS_9allocatorIS4_EEE17__annotate_deleteB7v160006Ev,
      symObjAddr: 0x355C,
      symBinAddr: 0x1000050D4,
      symSize: 0xD4,
    }
  - {
      offsetInCU: 0x196A3,
      offset: 0x196A3,
      size: 0x8,
      addend: 0x0,
      symName: __ZNSt3__116reverse_iteratorIPNS_14basic_ofstreamIcNS_11char_traitsIcEEEEEC1B7v160006ES5_,
      symObjAddr: 0x375C,
      symBinAddr: 0x1000052D4,
      symSize: 0x34,
    }
  - {
      offsetInCU: 0x196DB,
      offset: 0x196DB,
      size: 0x8,
      addend: 0x0,
      symName: __ZNKSt3__116reverse_iteratorIPNS_14basic_ofstreamIcNS_11char_traitsIcEEEEE4baseB7v160006Ev,
      symObjAddr: 0x3790,
      symBinAddr: 0x100005308,
      symSize: 0x18,
    }
  - {
      offsetInCU: 0x19701,
      offset: 0x19701,
      size: 0x8,
      addend: 0x0,
      symName: __ZNSt3__16vectorINS_14basic_ofstreamIcNS_11char_traitsIcEEEENS_9allocatorIS4_EEE9__end_capB7v160006Ev,
      symObjAddr: 0x37E4,
      symBinAddr: 0x10000535C,
      symSize: 0x28,
    }
  - {
      offsetInCU: 0x19727,
      offset: 0x19727,
      size: 0x8,
      addend: 0x0,
      symName: __ZNKSt3__16vectorINS_14basic_ofstreamIcNS_11char_traitsIcEEEENS_9allocatorIS4_EEE14__annotate_newB7v160006Em,
      symObjAddr: 0x380C,
      symBinAddr: 0x100005384,
      symSize: 0xC8,
    }
  - {
      offsetInCU: 0x1975C,
      offset: 0x1975C,
      size: 0x8,
      addend: 0x0,
      symName: __ZNKSt3__16vectorINS_14basic_ofstreamIcNS_11char_traitsIcEEEENS_9allocatorIS4_EEE31__annotate_contiguous_containerB7v160006EPKvS9_S9_S9_,
      symObjAddr: 0x38E4,
      symBinAddr: 0x10000545C,
      symSize: 0x20,
    }
  - {
      offsetInCU: 0x197B2,
      offset: 0x197B2,
      size: 0x8,
      addend: 0x0,
      symName: __ZNKSt3__16vectorINS_14basic_ofstreamIcNS_11char_traitsIcEEEENS_9allocatorIS4_EEE4dataB7v160006Ev,
      symObjAddr: 0x3904,
      symBinAddr: 0x10000547C,
      symSize: 0x28,
    }
  - {
      offsetInCU: 0x197D8,
      offset: 0x197D8,
      size: 0x8,
      addend: 0x0,
      symName: __ZNSt3__129_AllocatorDestroyRangeReverseINS_9allocatorINS_14basic_ofstreamIcNS_11char_traitsIcEEEEEENS_16reverse_iteratorIPS5_EEEC1B7v160006ERS6_RS9_SC_,
      symObjAddr: 0x398C,
      symBinAddr: 0x100005504,
      symSize: 0x44,
    }
  - {
      offsetInCU: 0x19835,
      offset: 0x19835,
      size: 0x8,
      addend: 0x0,
      symName: __ZNSt3__116allocator_traitsINS_9allocatorINS_14basic_ofstreamIcNS_11char_traitsIcEEEEEEE9constructB7v160006IS5_JS5_EvvEEvRS6_PT_DpOT0_,
      symObjAddr: 0x3A18,
      symBinAddr: 0x100005590,
      symSize: 0x30,
    }
  - {
      offsetInCU: 0x1988A,
      offset: 0x1988A,
      size: 0x8,
      addend: 0x0,
      symName: __ZNKSt3__116reverse_iteratorIPNS_14basic_ofstreamIcNS_11char_traitsIcEEEEEdeB7v160006Ev,
      symObjAddr: 0x3A6C,
      symBinAddr: 0x1000055E4,
      symSize: 0x28,
    }
  - {
      offsetInCU: 0x198BE,
      offset: 0x198BE,
      size: 0x8,
      addend: 0x0,
      symName: __ZNSt3__116reverse_iteratorIPNS_14basic_ofstreamIcNS_11char_traitsIcEEEEEppB7v160006Ev,
      symObjAddr: 0x3A94,
      symBinAddr: 0x10000560C,
      symSize: 0x20,
    }
  - {
      offsetInCU: 0x198E4,
      offset: 0x198E4,
      size: 0x8,
      addend: 0x0,
      symName: __ZNSt3__128__exception_guard_exceptionsINS_29_AllocatorDestroyRangeReverseINS_9allocatorINS_14basic_ofstreamIcNS_11char_traitsIcEEEEEENS_16reverse_iteratorIPS6_EEEEE10__completeB7v160006Ev,
      symObjAddr: 0x3AB4,
      symBinAddr: 0x10000562C,
      symSize: 0x1C,
    }
  - {
      offsetInCU: 0x1990A,
      offset: 0x1990A,
      size: 0x8,
      addend: 0x0,
      symName: __ZNSt3__128__exception_guard_exceptionsINS_29_AllocatorDestroyRangeReverseINS_9allocatorINS_14basic_ofstreamIcNS_11char_traitsIcEEEEEENS_16reverse_iteratorIPS6_EEEEED1B7v160006Ev,
      symObjAddr: 0x3AD0,
      symBinAddr: 0x100005648,
      symSize: 0x2C,
    }
  - {
      offsetInCU: 0x19934,
      offset: 0x19934,
      size: 0x8,
      addend: 0x0,
      symName: __ZNSt3__128__exception_guard_exceptionsINS_29_AllocatorDestroyRangeReverseINS_9allocatorINS_14basic_ofstreamIcNS_11char_traitsIcEEEEEENS_16reverse_iteratorIPS6_EEEEEC1B7v160006ESB_,
      symObjAddr: 0x3AFC,
      symBinAddr: 0x100005674,
      symSize: 0x34,
    }
  - {
      offsetInCU: 0x1996D,
      offset: 0x1996D,
      size: 0x8,
      addend: 0x0,
      symName: __ZNSt3__128__exception_guard_exceptionsINS_29_AllocatorDestroyRangeReverseINS_9allocatorINS_14basic_ofstreamIcNS_11char_traitsIcEEEEEENS_16reverse_iteratorIPS6_EEEEEC2B7v160006ESB_,
      symObjAddr: 0x3B30,
      symBinAddr: 0x1000056A8,
      symSize: 0x30,
    }
  - {
      offsetInCU: 0x199A6,
      offset: 0x199A6,
      size: 0x8,
      addend: 0x0,
      symName: __ZNSt3__129_AllocatorDestroyRangeReverseINS_9allocatorINS_14basic_ofstreamIcNS_11char_traitsIcEEEEEENS_16reverse_iteratorIPS5_EEEC2B7v160006ERS6_RS9_SC_,
      symObjAddr: 0x3B60,
      symBinAddr: 0x1000056D8,
      symSize: 0x38,
    }
  - {
      offsetInCU: 0x199FD,
      offset: 0x199FD,
      size: 0x8,
      addend: 0x0,
      symName: __ZNSt3__114basic_ofstreamIcNS_11char_traitsIcEEEC1EOS3_,
      symObjAddr: 0x3BD4,
      symBinAddr: 0x10000574C,
      symSize: 0x120,
    }
  - {
      offsetInCU: 0x19A38,
      offset: 0x19A38,
      size: 0x8,
      addend: 0x0,
      symName: __ZNSt3__113basic_ostreamIcNS_11char_traitsIcEEEC2EOS3_,
      symObjAddr: 0x3CF4,
      symBinAddr: 0x10000586C,
      symSize: 0x6C,
    }
  - {
      offsetInCU: 0x19A7F,
      offset: 0x19A7F,
      size: 0x8,
      addend: 0x0,
      symName: __ZNSt3__19basic_iosIcNS_11char_traitsIcEEE9set_rdbufB7v160006EPNS_15basic_streambufIcS2_EE,
      symObjAddr: 0x3D60,
      symBinAddr: 0x1000058D8,
      symSize: 0x2C,
    }
  - {
      offsetInCU: 0x19AB6,
      offset: 0x19AB6,
      size: 0x8,
      addend: 0x0,
      symName: __ZNSt3__19basic_iosIcNS_11char_traitsIcEEE4moveB7v160006ERS3_,
      symObjAddr: 0x3D8C,
      symBinAddr: 0x100005904,
      symSize: 0x54,
    }
  - {
      offsetInCU: 0x19AED,
      offset: 0x19AED,
      size: 0x8,
      addend: 0x0,
      symName: __ZNSt3__18ios_base9set_rdbufB7v160006EPv,
      symObjAddr: 0x3DE0,
      symBinAddr: 0x100005958,
      symSize: 0x20,
    }
  - {
      offsetInCU: 0x19B27,
      offset: 0x19B27,
      size: 0x8,
      addend: 0x0,
      symName: __ZNSt3__119__to_address_helperINS_16reverse_iteratorIPNS_14basic_ofstreamIcNS_11char_traitsIcEEEEEEvE6__callB7v160006ERKS7_,
      symObjAddr: 0x3E00,
      symBinAddr: 0x100005978,
      symSize: 0x38,
    }
  - {
      offsetInCU: 0x19B4A,
      offset: 0x19B4A,
      size: 0x8,
      addend: 0x0,
      symName: __ZNKSt3__116reverse_iteratorIPNS_14basic_ofstreamIcNS_11char_traitsIcEEEEEptB7v160006Ev,
      symObjAddr: 0x3E38,
      symBinAddr: 0x1000059B0,
      symSize: 0x2C,
    }
  - {
      offsetInCU: 0x19B70,
      offset: 0x19B70,
      size: 0x8,
      addend: 0x0,
      symName: __ZNSt3__128__exception_guard_exceptionsINS_29_AllocatorDestroyRangeReverseINS_9allocatorINS_14basic_ofstreamIcNS_11char_traitsIcEEEEEENS_16reverse_iteratorIPS6_EEEEED2B7v160006Ev,
      symObjAddr: 0x3F34,
      symBinAddr: 0x100005AAC,
      symSize: 0x50,
    }
  - {
      offsetInCU: 0x19B9A,
      offset: 0x19B9A,
      size: 0x8,
      addend: 0x0,
      symName: __ZNKSt3__129_AllocatorDestroyRangeReverseINS_9allocatorINS_14basic_ofstreamIcNS_11char_traitsIcEEEEEENS_16reverse_iteratorIPS5_EEEclB7v160006Ev,
      symObjAddr: 0x3F84,
      symBinAddr: 0x100005AFC,
      symSize: 0xB4,
    }
  - {
      offsetInCU: 0x19BC1,
      offset: 0x19BC1,
      size: 0x8,
      addend: 0x0,
      symName: __ZNSt3__116reverse_iteratorINS0_IPNS_14basic_ofstreamIcNS_11char_traitsIcEEEEEEEC1B7v160006ES6_,
      symObjAddr: 0x40A8,
      symBinAddr: 0x100005C20,
      symSize: 0x3C,
    }
  - {
      offsetInCU: 0x19BF9,
      offset: 0x19BF9,
      size: 0x8,
      addend: 0x0,
      symName: __ZNSt3__116allocator_traitsINS_9allocatorINS_14basic_ofstreamIcNS_11char_traitsIcEEEEEEE7destroyB7v160006IS5_vvEEvRS6_PT_,
      symObjAddr: 0x4144,
      symBinAddr: 0x100005CBC,
      symSize: 0x28,
    }
  - {
      offsetInCU: 0x19C34,
      offset: 0x19C34,
      size: 0x8,
      addend: 0x0,
      symName: __ZNSt3__116reverse_iteratorINS0_IPNS_14basic_ofstreamIcNS_11char_traitsIcEEEEEEEppB7v160006Ev,
      symObjAddr: 0x4190,
      symBinAddr: 0x100005D08,
      symSize: 0x30,
    }
  - {
      offsetInCU: 0x19C5A,
      offset: 0x19C5A,
      size: 0x8,
      addend: 0x0,
      symName: __ZNKSt3__116reverse_iteratorINS0_IPNS_14basic_ofstreamIcNS_11char_traitsIcEEEEEEE4baseB7v160006Ev,
      symObjAddr: 0x41C0,
      symBinAddr: 0x100005D38,
      symSize: 0x24,
    }
  - {
      offsetInCU: 0x19C85,
      offset: 0x19C85,
      size: 0x8,
      addend: 0x0,
      symName: __ZNSt3__119__to_address_helperINS_16reverse_iteratorINS1_IPNS_14basic_ofstreamIcNS_11char_traitsIcEEEEEEEEvE6__callB7v160006ERKS8_,
      symObjAddr: 0x4234,
      symBinAddr: 0x100005DAC,
      symSize: 0x38,
    }
  - {
      offsetInCU: 0x19CA8,
      offset: 0x19CA8,
      size: 0x8,
      addend: 0x0,
      symName: __ZNKSt3__116reverse_iteratorINS0_IPNS_14basic_ofstreamIcNS_11char_traitsIcEEEEEEEptB7v160006Ev,
      symObjAddr: 0x426C,
      symBinAddr: 0x100005DE4,
      symSize: 0x4C,
    }
  - {
      offsetInCU: 0x19CCE,
      offset: 0x19CCE,
      size: 0x8,
      addend: 0x0,
      symName: __ZNSt3__116reverse_iteratorIPNS_14basic_ofstreamIcNS_11char_traitsIcEEEEEpLB7v160006El,
      symObjAddr: 0x4394,
      symBinAddr: 0x100005F0C,
      symSize: 0x30,
    }
  - {
      offsetInCU: 0x19D02,
      offset: 0x19D02,
      size: 0x8,
      addend: 0x0,
      symName: __ZNSt3__116reverse_iteratorIPNS_14basic_ofstreamIcNS_11char_traitsIcEEEEEmmB7v160006Ev,
      symObjAddr: 0x43C4,
      symBinAddr: 0x100005F3C,
      symSize: 0x20,
    }
  - {
      offsetInCU: 0x19D28,
      offset: 0x19D28,
      size: 0x8,
      addend: 0x0,
      symName: __ZNSt3__116reverse_iteratorINS0_IPNS_14basic_ofstreamIcNS_11char_traitsIcEEEEEEEC2B7v160006ES6_,
      symObjAddr: 0x43E4,
      symBinAddr: 0x100005F5C,
      symSize: 0x2C,
    }
  - {
      offsetInCU: 0x19D60,
      offset: 0x19D60,
      size: 0x8,
      addend: 0x0,
      symName: __ZNSt3__116reverse_iteratorIPNS_14basic_ofstreamIcNS_11char_traitsIcEEEEEC2B7v160006ES5_,
      symObjAddr: 0x4410,
      symBinAddr: 0x100005F88,
      symSize: 0x28,
    }
  - {
      offsetInCU: 0x19D98,
      offset: 0x19D98,
      size: 0x8,
      addend: 0x0,
      symName: __ZNSt3__117__compressed_pairIPNS_14basic_ofstreamIcNS_11char_traitsIcEEEENS_9allocatorIS4_EEE5firstB7v160006Ev,
      symObjAddr: 0x4438,
      symBinAddr: 0x100005FB0,
      symSize: 0x24,
    }
  - {
      offsetInCU: 0x19DBE,
      offset: 0x19DBE,
      size: 0x8,
      addend: 0x0,
      symName: __ZNSt3__114__split_bufferINS_14basic_ofstreamIcNS_11char_traitsIcEEEERNS_9allocatorIS4_EEED2Ev,
      symObjAddr: 0x445C,
      symBinAddr: 0x100005FD4,
      symSize: 0x8C,
    }
  - {
      offsetInCU: 0x19DEA,
      offset: 0x19DEA,
      size: 0x8,
      addend: 0x0,
      symName: __ZNSt3__114__split_bufferINS_14basic_ofstreamIcNS_11char_traitsIcEEEERNS_9allocatorIS4_EEE5clearB7v160006Ev,
      symObjAddr: 0x44E8,
      symBinAddr: 0x100006060,
      symSize: 0x28,
    }
  - {
      offsetInCU: 0x19E10,
      offset: 0x19E10,
      size: 0x8,
      addend: 0x0,
      symName: __ZNSt3__116allocator_traitsINS_9allocatorINS_14basic_ofstreamIcNS_11char_traitsIcEEEEEEE10deallocateB7v160006ERS6_PS5_m,
      symObjAddr: 0x4510,
      symBinAddr: 0x100006088,
      symSize: 0x34,
    }
  - {
      offsetInCU: 0x19E52,
      offset: 0x19E52,
      size: 0x8,
      addend: 0x0,
      symName: __ZNKSt3__114__split_bufferINS_14basic_ofstreamIcNS_11char_traitsIcEEEERNS_9allocatorIS4_EEE8capacityB7v160006Ev,
      symObjAddr: 0x4544,
      symBinAddr: 0x1000060BC,
      symSize: 0x40,
    }
  - {
      offsetInCU: 0x19E78,
      offset: 0x19E78,
      size: 0x8,
      addend: 0x0,
      symName: __ZNSt3__114__split_bufferINS_14basic_ofstreamIcNS_11char_traitsIcEEEERNS_9allocatorIS4_EEE17__destruct_at_endB7v160006EPS4_,
      symObjAddr: 0x4584,
      symBinAddr: 0x1000060FC,
      symSize: 0x2C,
    }
  - {
      offsetInCU: 0x19EAC,
      offset: 0x19EAC,
      size: 0x8,
      addend: 0x0,
      symName: __ZNSt3__114__split_bufferINS_14basic_ofstreamIcNS_11char_traitsIcEEEERNS_9allocatorIS4_EEE17__destruct_at_endB7v160006EPS4_NS_17integral_constantIbLb0EEE,
      symObjAddr: 0x45B0,
      symBinAddr: 0x100006128,
      symSize: 0x80,
    }
  - {
      offsetInCU: 0x19EEC,
      offset: 0x19EEC,
      size: 0x8,
      addend: 0x0,
      symName: __ZNSt3__19allocatorINS_14basic_ofstreamIcNS_11char_traitsIcEEEEE10deallocateB7v160006EPS4_m,
      symObjAddr: 0x4630,
      symBinAddr: 0x1000061A8,
      symSize: 0x44,
    }
  - {
      offsetInCU: 0x19F2E,
      offset: 0x19F2E,
      size: 0x8,
      addend: 0x0,
      symName: __ZNKSt3__114__split_bufferINS_14basic_ofstreamIcNS_11char_traitsIcEEEERNS_9allocatorIS4_EEE9__end_capB7v160006Ev,
      symObjAddr: 0x4674,
      symBinAddr: 0x1000061EC,
      symSize: 0x28,
    }
  - {
      offsetInCU: 0x19F54,
      offset: 0x19F54,
      size: 0x8,
      addend: 0x0,
      symName: __ZNKSt3__117__compressed_pairIPNS_14basic_ofstreamIcNS_11char_traitsIcEEEERNS_9allocatorIS4_EEE5firstB7v160006Ev,
      symObjAddr: 0x469C,
      symBinAddr: 0x100006214,
      symSize: 0x24,
    }
  - {
      offsetInCU: 0x19F7A,
      offset: 0x19F7A,
      size: 0x8,
      addend: 0x0,
      symName: __ZNSt3__16vectorINS_14basic_ofstreamIcNS_11char_traitsIcEEEENS_9allocatorIS4_EEE22__construct_one_at_endB7v160006IJS4_EEEvDpOT_,
      symObjAddr: 0x46C0,
      symBinAddr: 0x100006238,
      symSize: 0x90,
    }
  - {
      offsetInCU: 0x19FC9,
      offset: 0x19FC9,
      size: 0x8,
      addend: 0x0,
      symName: __ZNSt3__16vectorINS_14basic_ofstreamIcNS_11char_traitsIcEEEENS_9allocatorIS4_EEE21__push_back_slow_pathIS4_EEvOT_,
      symObjAddr: 0x4750,
      symBinAddr: 0x1000062C8,
      symSize: 0xD8,
    }
  - {
      offsetInCU: 0x1A040,
      offset: 0x1A040,
      size: 0x8,
      addend: 0x0,
      symName: __ZNSt3__16vectorINS_14basic_ofstreamIcNS_11char_traitsIcEEEENS_9allocatorIS4_EEE21_ConstructTransactionC1B7v160006ERS7_m,
      symObjAddr: 0x4828,
      symBinAddr: 0x1000063A0,
      symSize: 0x3C,
    }
  - {
      offsetInCU: 0x1A088,
      offset: 0x1A088,
      size: 0x8,
      addend: 0x0,
      symName: __ZNSt3__16vectorINS_14basic_ofstreamIcNS_11char_traitsIcEEEENS_9allocatorIS4_EEE21_ConstructTransactionD1B7v160006Ev,
      symObjAddr: 0x4864,
      symBinAddr: 0x1000063DC,
      symSize: 0x2C,
    }
  - {
      offsetInCU: 0x1A0B2,
      offset: 0x1A0B2,
      size: 0x8,
      addend: 0x0,
      symName: __ZNSt3__16vectorINS_14basic_ofstreamIcNS_11char_traitsIcEEEENS_9allocatorIS4_EEE21_ConstructTransactionC2B7v160006ERS7_m,
      symObjAddr: 0x4890,
      symBinAddr: 0x100006408,
      symSize: 0x4C,
    }
  - {
      offsetInCU: 0x1A0FA,
      offset: 0x1A0FA,
      size: 0x8,
      addend: 0x0,
      symName: __ZNSt3__16vectorINS_14basic_ofstreamIcNS_11char_traitsIcEEEENS_9allocatorIS4_EEE21_ConstructTransactionD2B7v160006Ev,
      symObjAddr: 0x48DC,
      symBinAddr: 0x100006454,
      symSize: 0x20,
    }
  - {
      offsetInCU: 0x1A124,
      offset: 0x1A124,
      size: 0x8,
      addend: 0x0,
      symName: __ZNKSt3__16vectorINS_14basic_ofstreamIcNS_11char_traitsIcEEEENS_9allocatorIS4_EEE11__recommendB7v160006Em,
      symObjAddr: 0x48FC,
      symBinAddr: 0x100006474,
      symSize: 0xB4,
    }
  - {
      offsetInCU: 0x1A179,
      offset: 0x1A179,
      size: 0x8,
      addend: 0x0,
      symName: __ZNSt3__113basic_ostreamIcNS_11char_traitsIcEEEC2B7v160006EPNS_15basic_streambufIcS2_EE,
      symObjAddr: 0x4A30,
      symBinAddr: 0x1000065A8,
      symSize: 0x60,
    }
  - {
      offsetInCU: 0x1A1BE,
      offset: 0x1A1BE,
      size: 0x8,
      addend: 0x0,
      symName: __ZNSt3__113basic_filebufIcNS_11char_traitsIcEEE4openERKNS_12basic_stringIcS2_NS_9allocatorIcEEEEj,
      symObjAddr: 0x4A90,
      symBinAddr: 0x100006608,
      symSize: 0x44,
    }
  - {
      offsetInCU: 0x1A202,
      offset: 0x1A202,
      size: 0x8,
      addend: 0x0,
      symName: __ZNKSt3__112basic_stringIcNS_11char_traitsIcEENS_9allocatorIcEEE5c_strB7v160006Ev,
      symObjAddr: 0x4AD4,
      symBinAddr: 0x10000664C,
      symSize: 0x24,
    }
  - {
      offsetInCU: 0x1A228,
      offset: 0x1A228,
      size: 0x8,
      addend: 0x0,
      symName: __ZNKSt3__112basic_stringIcNS_11char_traitsIcEENS_9allocatorIcEEE4dataB7v160006Ev,
      symObjAddr: 0x4AF8,
      symBinAddr: 0x100006670,
      symSize: 0x28,
    }
  - {
      offsetInCU: 0x1A24E,
      offset: 0x1A24E,
      size: 0x8,
      addend: 0x0,
      symName: __ZNKSt3__112basic_stringIcNS_11char_traitsIcEENS_9allocatorIcEEE13__get_pointerB7v160006Ev,
      symObjAddr: 0x4B34,
      symBinAddr: 0x1000066AC,
      symSize: 0x54,
    }
  - {
      offsetInCU: 0x1A274,
      offset: 0x1A274,
      size: 0x8,
      addend: 0x0,
      symName: __ZNKSt3__112basic_stringIcNS_11char_traitsIcEENS_9allocatorIcEEE9__is_longB7v160006Ev,
      symObjAddr: 0x4B88,
      symBinAddr: 0x100006700,
      symSize: 0x38,
    }
  - {
      offsetInCU: 0x1A29A,
      offset: 0x1A29A,
      size: 0x8,
      addend: 0x0,
      symName: __ZNKSt3__112basic_stringIcNS_11char_traitsIcEENS_9allocatorIcEEE18__get_long_pointerB7v160006Ev,
      symObjAddr: 0x4BC0,
      symBinAddr: 0x100006738,
      symSize: 0x28,
    }
  - {
      offsetInCU: 0x1A2C0,
      offset: 0x1A2C0,
      size: 0x8,
      addend: 0x0,
      symName: __ZNKSt3__112basic_stringIcNS_11char_traitsIcEENS_9allocatorIcEEE19__get_short_pointerB7v160006Ev,
      symObjAddr: 0x4BE8,
      symBinAddr: 0x100006760,
      symSize: 0x28,
    }
  - {
      offsetInCU: 0x1A2E6,
      offset: 0x1A2E6,
      size: 0x8,
      addend: 0x0,
      symName: __ZNKSt3__117__compressed_pairINS_12basic_stringIcNS_11char_traitsIcEENS_9allocatorIcEEE5__repES5_E5firstB7v160006Ev,
      symObjAddr: 0x4C10,
      symBinAddr: 0x100006788,
      symSize: 0x24,
    }
  - {
      offsetInCU: 0x1A30C,
      offset: 0x1A30C,
      size: 0x8,
      addend: 0x0,
      symName: __ZNKSt3__122__compressed_pair_elemINS_12basic_stringIcNS_11char_traitsIcEENS_9allocatorIcEEE5__repELi0ELb0EE5__getB7v160006Ev,
      symObjAddr: 0x4C34,
      symBinAddr: 0x1000067AC,
      symSize: 0x14,
    }
  - {
      offsetInCU: 0x1A332,
      offset: 0x1A332,
      size: 0x8,
      addend: 0x0,
      symName: __ZNSt3__114pointer_traitsIPKcE10pointer_toB7v160006ERS1_,
      symObjAddr: 0x4C48,
      symBinAddr: 0x1000067C0,
      symSize: 0x14,
    }
  - {
      offsetInCU: 0x1A355,
      offset: 0x1A355,
      size: 0x8,
      addend: 0x0,
      symName: __ZNSt3__114basic_ofstreamIcNS_11char_traitsIcEEED2Ev,
      symObjAddr: 0x4C5C,
      symBinAddr: 0x1000067D4,
      symSize: 0x64,
    }
  - {
      offsetInCU: 0x1A38F,
      offset: 0x1A38F,
      size: 0x8,
      addend: 0x0,
      symName: __ZTv0_n24_NSt3__114basic_ofstreamIcNS_11char_traitsIcEEED1Ev,
      symObjAddr: 0x4CC0,
      symBinAddr: 0x100006838,
      symSize: 0x28,
    }
  - {
      offsetInCU: 0x1A3A6,
      offset: 0x1A3A6,
      size: 0x8,
      addend: 0x0,
      symName: __ZNSt3__16vectorINS_14basic_ofstreamIcNS_11char_traitsIcEEEENS_9allocatorIS4_EEED2B7v160006Ev,
      symObjAddr: 0x4CE8,
      symBinAddr: 0x100006860,
      symSize: 0x44,
    }
  - {
      offsetInCU: 0x1A3D0,
      offset: 0x1A3D0,
      size: 0x8,
      addend: 0x0,
      symName: __ZNSt3__16vectorINS_14basic_ofstreamIcNS_11char_traitsIcEEEENS_9allocatorIS4_EEE16__destroy_vectorC1ERS7_,
      symObjAddr: 0x4D2C,
      symBinAddr: 0x1000068A4,
      symSize: 0x34,
    }
  - {
      offsetInCU: 0x1A409,
      offset: 0x1A409,
      size: 0x8,
      addend: 0x0,
      symName: __ZNSt3__16vectorINS_14basic_ofstreamIcNS_11char_traitsIcEEEENS_9allocatorIS4_EEE16__destroy_vectorclB7v160006Ev,
      symObjAddr: 0x4D60,
      symBinAddr: 0x1000068D8,
      symSize: 0x9C,
    }
  - {
      offsetInCU: 0x1A42F,
      offset: 0x1A42F,
      size: 0x8,
      addend: 0x0,
      symName: __ZNSt3__16vectorINS_14basic_ofstreamIcNS_11char_traitsIcEEEENS_9allocatorIS4_EEE16__destroy_vectorC2ERS7_,
      symObjAddr: 0x4DFC,
      symBinAddr: 0x100006974,
      symSize: 0x20,
    }
  - {
      offsetInCU: 0x1A468,
      offset: 0x1A468,
      size: 0x8,
      addend: 0x0,
      symName: __ZNSt3__16vectorINS_14basic_ofstreamIcNS_11char_traitsIcEEEENS_9allocatorIS4_EEE7__clearB7v160006Ev,
      symObjAddr: 0x4E2C,
      symBinAddr: 0x1000069A4,
      symSize: 0x28,
    }
  - {
      offsetInCU: 0x1A48E,
      offset: 0x1A48E,
      size: 0x8,
      addend: 0x0,
      symName: __ZNSt3__16vectorINS_14basic_ofstreamIcNS_11char_traitsIcEEEENS_9allocatorIS4_EEE22__base_destruct_at_endB7v160006EPS4_,
      symObjAddr: 0x4E54,
      symBinAddr: 0x1000069CC,
      symSize: 0x8C,
    }
  - {
      offsetInCU: 0x1A4D2,
      offset: 0x1A4D2,
      size: 0x8,
      addend: 0x0,
      symName: __ZNSt3__113basic_fstreamIcNS_11char_traitsIcEEED2Ev,
      symObjAddr: 0x4EE0,
      symBinAddr: 0x100006A58,
      symSize: 0x6C,
    }
  - {
      offsetInCU: 0x1A50B,
      offset: 0x1A50B,
      size: 0x8,
      addend: 0x0,
      symName: __ZN9GeneratorD2Ev,
      symObjAddr: 0x4F4C,
      symBinAddr: 0x100006AC4,
      symSize: 0x98,
    }
  - {
      offsetInCU: 0x1A555,
      offset: 0x1A555,
      size: 0x8,
      addend: 0x0,
      symName: __ZNKSt3__113basic_ostreamIcNS_11char_traitsIcEEE6sentrycvbB7v160006Ev,
      symObjAddr: 0x51D0,
      symBinAddr: 0x100006D48,
      symSize: 0x1C,
    }
  - {
      offsetInCU: 0x1A57B,
      offset: 0x1A57B,
      size: 0x8,
      addend: 0x0,
      symName: __ZNSt3__119ostreambuf_iteratorIcNS_11char_traitsIcEEEC1B7v160006ERNS_13basic_ostreamIcS2_EE,
      symObjAddr: 0x542C,
      symBinAddr: 0x100006FA4,
      symSize: 0x34,
    }
  - {
      offsetInCU: 0x1A5B3,
      offset: 0x1A5B3,
      size: 0x8,
      addend: 0x0,
      symName: __ZNKSt3__18ios_base5flagsB7v160006Ev,
      symObjAddr: 0x5460,
      symBinAddr: 0x100006FD8,
      symSize: 0x18,
    }
  - {
      offsetInCU: 0x1A5DB,
      offset: 0x1A5DB,
      size: 0x8,
      addend: 0x0,
      symName: __ZNKSt3__19basic_iosIcNS_11char_traitsIcEEE4fillB7v160006Ev,
      symObjAddr: 0x5478,
      symBinAddr: 0x100006FF0,
      symSize: 0x64,
    }
  - {
      offsetInCU: 0x1A603,
      offset: 0x1A603,
      size: 0x8,
      addend: 0x0,
      symName: __ZNKSt3__119ostreambuf_iteratorIcNS_11char_traitsIcEEE6failedB7v160006Ev,
      symObjAddr: 0x54DC,
      symBinAddr: 0x100007054,
      symSize: 0x24,
    }
  - {
      offsetInCU: 0x1A629,
      offset: 0x1A629,
      size: 0x8,
      addend: 0x0,
      symName: __ZNKSt3__18ios_base5widthB7v160006Ev,
      symObjAddr: 0x5500,
      symBinAddr: 0x100007078,
      symSize: 0x18,
    }
  - {
      offsetInCU: 0x1A651,
      offset: 0x1A651,
      size: 0x8,
      addend: 0x0,
      symName: __ZNSt3__115basic_streambufIcNS_11char_traitsIcEEE5sputnB7v160006EPKcl,
      symObjAddr: 0x5518,
      symBinAddr: 0x100007090,
      symSize: 0x3C,
    }
  - {
      offsetInCU: 0x1A693,
      offset: 0x1A693,
      size: 0x8,
      addend: 0x0,
      symName: __ZNSt3__112basic_stringIcNS_11char_traitsIcEENS_9allocatorIcEEEC1B7v160006Emc,
      symObjAddr: 0x5554,
      symBinAddr: 0x1000070CC,
      symSize: 0x3C,
    }
  - {
      offsetInCU: 0x1A6DB,
      offset: 0x1A6DB,
      size: 0x8,
      addend: 0x0,
      symName: __ZNSt3__112basic_stringIcNS_11char_traitsIcEENS_9allocatorIcEEE4dataB7v160006Ev,
      symObjAddr: 0x5590,
      symBinAddr: 0x100007108,
      symSize: 0x28,
    }
  - {
      offsetInCU: 0x1A701,
      offset: 0x1A701,
      size: 0x8,
      addend: 0x0,
      symName: __ZNSt3__18ios_base5widthB7v160006El,
      symObjAddr: 0x55B8,
      symBinAddr: 0x100007130,
      symSize: 0x2C,
    }
  - {
      offsetInCU: 0x1A747,
      offset: 0x1A747,
      size: 0x8,
      addend: 0x0,
      symName: __ZNSt3__112basic_stringIcNS_11char_traitsIcEENS_9allocatorIcEEEC2B7v160006Emc,
      symObjAddr: 0x55E4,
      symBinAddr: 0x10000715C,
      symSize: 0x54,
    }
  - {
      offsetInCU: 0x1A78F,
      offset: 0x1A78F,
      size: 0x8,
      addend: 0x0,
      symName: __ZNSt3__112basic_stringIcNS_11char_traitsIcEENS_9allocatorIcEEE13__get_pointerB7v160006Ev,
      symObjAddr: 0x564C,
      symBinAddr: 0x1000071C4,
      symSize: 0x54,
    }
  - {
      offsetInCU: 0x1A7B5,
      offset: 0x1A7B5,
      size: 0x8,
      addend: 0x0,
      symName: __ZNSt3__112basic_stringIcNS_11char_traitsIcEENS_9allocatorIcEEE18__get_long_pointerB7v160006Ev,
      symObjAddr: 0x56A0,
      symBinAddr: 0x100007218,
      symSize: 0x28,
    }
  - {
      offsetInCU: 0x1A7DB,
      offset: 0x1A7DB,
      size: 0x8,
      addend: 0x0,
      symName: __ZNSt3__112basic_stringIcNS_11char_traitsIcEENS_9allocatorIcEEE19__get_short_pointerB7v160006Ev,
      symObjAddr: 0x56C8,
      symBinAddr: 0x100007240,
      symSize: 0x28,
    }
  - {
      offsetInCU: 0x1A801,
      offset: 0x1A801,
      size: 0x8,
      addend: 0x0,
      symName: __ZNSt3__117__compressed_pairINS_12basic_stringIcNS_11char_traitsIcEENS_9allocatorIcEEE5__repES5_E5firstB7v160006Ev,
      symObjAddr: 0x56F0,
      symBinAddr: 0x100007268,
      symSize: 0x24,
    }
  - {
      offsetInCU: 0x1A827,
      offset: 0x1A827,
      size: 0x8,
      addend: 0x0,
      symName: __ZNSt3__122__compressed_pair_elemINS_12basic_stringIcNS_11char_traitsIcEENS_9allocatorIcEEE5__repELi0ELb0EE5__getB7v160006Ev,
      symObjAddr: 0x5714,
      symBinAddr: 0x10000728C,
      symSize: 0x14,
    }
  - {
      offsetInCU: 0x1A84D,
      offset: 0x1A84D,
      size: 0x8,
      addend: 0x0,
      symName: __ZNSt3__114pointer_traitsIPcE10pointer_toB7v160006ERc,
      symObjAddr: 0x5728,
      symBinAddr: 0x1000072A0,
      symSize: 0x14,
    }
  - {
      offsetInCU: 0x1A870,
      offset: 0x1A870,
      size: 0x8,
      addend: 0x0,
      symName: __ZNSt3__119ostreambuf_iteratorIcNS_11char_traitsIcEEEC2B7v160006ERNS_13basic_ostreamIcS2_EE,
      symObjAddr: 0x573C,
      symBinAddr: 0x1000072B4,
      symSize: 0x54,
    }
  - {
      offsetInCU: 0x1A8A8,
      offset: 0x1A8A8,
      size: 0x8,
      addend: 0x0,
      symName: __ZNKSt3__19basic_iosIcNS_11char_traitsIcEEE5rdbufB7v160006Ev,
      symObjAddr: 0x5790,
      symBinAddr: 0x100007308,
      symSize: 0x24,
    }
  - {
      offsetInCU: 0x1A8D0,
      offset: 0x1A8D0,
      size: 0x8,
      addend: 0x0,
      symName: __ZNKSt3__18ios_base5rdbufB7v160006Ev,
      symObjAddr: 0x57B4,
      symBinAddr: 0x10000732C,
      symSize: 0x18,
    }
  - {
      offsetInCU: 0x1A8F6,
      offset: 0x1A8F6,
      size: 0x8,
      addend: 0x0,
      symName: __ZNSt3__111char_traitsIcE11eq_int_typeEii,
      symObjAddr: 0x57CC,
      symBinAddr: 0x100007344,
      symSize: 0x28,
    }
  - {
      offsetInCU: 0x1A927,
      offset: 0x1A927,
      size: 0x8,
      addend: 0x0,
      symName: __ZNKSt3__19basic_iosIcNS_11char_traitsIcEEE5widenB7v160006Ec,
      symObjAddr: 0x57F4,
      symBinAddr: 0x10000736C,
      symSize: 0x84,
    }
  - {
      offsetInCU: 0x1A995,
      offset: 0x1A995,
      size: 0x8,
      addend: 0x0,
      symName: __ZNKSt3__15ctypeIcE5widenB7v160006Ec,
      symObjAddr: 0x58A4,
      symBinAddr: 0x10000741C,
      symSize: 0x38,
    }
